Archive member included to satisfy reference by file (symbol)

c:/program files (x86)/atollic/truestudio for stm32 9.0.1/armtools/bin/../lib/gcc/arm-atollic-eabi/6.3.1/../../../../arm-atollic-eabi/lib/armv7e-m/fpu\libc_nano.a(lib_a-init.o)
                              startup\startup_stm32f401xe.o (__libc_init_array)
c:/program files (x86)/atollic/truestudio for stm32 9.0.1/armtools/bin/../lib/gcc/arm-atollic-eabi/6.3.1/../../../../arm-atollic-eabi/lib/armv7e-m/fpu\libc_nano.a(lib_a-memcpy-stub.o)
                              Drivers\BSP\VL53L1X API\api\core\vl53l1_api.o (memcpy)
c:/program files (x86)/atollic/truestudio for stm32 9.0.1/armtools/bin/../lib/gcc/arm-atollic-eabi/6.3.1/../../../../arm-atollic-eabi/lib/armv7e-m/fpu\libc_nano.a(lib_a-memset.o)
                              Drivers\BSP\VL53L1X API\api\core\vl53l1_api.o (memset)
c:/program files (x86)/atollic/truestudio for stm32 9.0.1/armtools/bin/../lib/gcc/arm-atollic-eabi/6.3.1/../../../../arm-atollic-eabi/lib/armv7e-m/fpu\libc_nano.a(lib_a-sprintf.o)
                              Src\main.o (sprintf)
c:/program files (x86)/atollic/truestudio for stm32 9.0.1/armtools/bin/../lib/gcc/arm-atollic-eabi/6.3.1/../../../../arm-atollic-eabi/lib/armv7e-m/fpu\libc_nano.a(lib_a-strlen.o)
                              Src\main.o (strlen)
c:/program files (x86)/atollic/truestudio for stm32 9.0.1/armtools/bin/../lib/gcc/arm-atollic-eabi/6.3.1/../../../../arm-atollic-eabi/lib/armv7e-m/fpu\libc_nano.a(lib_a-strncpy.o)
                              Drivers\BSP\VL53L1X API\api\core\vl53l1_api.o (strncpy)
c:/program files (x86)/atollic/truestudio for stm32 9.0.1/armtools/bin/../lib/gcc/arm-atollic-eabi/6.3.1/../../../../arm-atollic-eabi/lib/armv7e-m/fpu\libc_nano.a(lib_a-impure.o)
                              c:/program files (x86)/atollic/truestudio for stm32 9.0.1/armtools/bin/../lib/gcc/arm-atollic-eabi/6.3.1/../../../../arm-atollic-eabi/lib/armv7e-m/fpu\libc_nano.a(lib_a-sprintf.o) (_impure_ptr)
c:/program files (x86)/atollic/truestudio for stm32 9.0.1/armtools/bin/../lib/gcc/arm-atollic-eabi/6.3.1/../../../../arm-atollic-eabi/lib/armv7e-m/fpu\libc_nano.a(lib_a-nano-svfprintf.o)
                              c:/program files (x86)/atollic/truestudio for stm32 9.0.1/armtools/bin/../lib/gcc/arm-atollic-eabi/6.3.1/../../../../arm-atollic-eabi/lib/armv7e-m/fpu\libc_nano.a(lib_a-sprintf.o) (_svfprintf_r)
c:/program files (x86)/atollic/truestudio for stm32 9.0.1/armtools/bin/../lib/gcc/arm-atollic-eabi/6.3.1/../../../../arm-atollic-eabi/lib/armv7e-m/fpu\libc_nano.a(lib_a-nano-vfprintf_i.o)
                              c:/program files (x86)/atollic/truestudio for stm32 9.0.1/armtools/bin/../lib/gcc/arm-atollic-eabi/6.3.1/../../../../arm-atollic-eabi/lib/armv7e-m/fpu\libc_nano.a(lib_a-nano-svfprintf.o) (_printf_i)
c:/program files (x86)/atollic/truestudio for stm32 9.0.1/armtools/bin/../lib/gcc/arm-atollic-eabi/6.3.1/../../../../arm-atollic-eabi/lib/armv7e-m/fpu\libc_nano.a(lib_a-memchr.o)
                              c:/program files (x86)/atollic/truestudio for stm32 9.0.1/armtools/bin/../lib/gcc/arm-atollic-eabi/6.3.1/../../../../arm-atollic-eabi/lib/armv7e-m/fpu\libc_nano.a(lib_a-nano-svfprintf.o) (memchr)
c:/program files (x86)/atollic/truestudio for stm32 9.0.1/armtools/bin/../lib/gcc/arm-atollic-eabi/6.3.1/../../../../arm-atollic-eabi/lib/armv7e-m/fpu\libc_nano.a(lib_a-memmove.o)
                              c:/program files (x86)/atollic/truestudio for stm32 9.0.1/armtools/bin/../lib/gcc/arm-atollic-eabi/6.3.1/../../../../arm-atollic-eabi/lib/armv7e-m/fpu\libc_nano.a(lib_a-nano-svfprintf.o) (memmove)
c:/program files (x86)/atollic/truestudio for stm32 9.0.1/armtools/bin/../lib/gcc/arm-atollic-eabi/6.3.1/../../../../arm-atollic-eabi/lib/armv7e-m/fpu\libc_nano.a(lib_a-nano-freer.o)
                              c:/program files (x86)/atollic/truestudio for stm32 9.0.1/armtools/bin/../lib/gcc/arm-atollic-eabi/6.3.1/../../../../arm-atollic-eabi/lib/armv7e-m/fpu\libc_nano.a(lib_a-nano-svfprintf.o) (_free_r)
c:/program files (x86)/atollic/truestudio for stm32 9.0.1/armtools/bin/../lib/gcc/arm-atollic-eabi/6.3.1/../../../../arm-atollic-eabi/lib/armv7e-m/fpu\libc_nano.a(lib_a-nano-mallocr.o)
                              c:/program files (x86)/atollic/truestudio for stm32 9.0.1/armtools/bin/../lib/gcc/arm-atollic-eabi/6.3.1/../../../../arm-atollic-eabi/lib/armv7e-m/fpu\libc_nano.a(lib_a-nano-svfprintf.o) (_malloc_r)
c:/program files (x86)/atollic/truestudio for stm32 9.0.1/armtools/bin/../lib/gcc/arm-atollic-eabi/6.3.1/../../../../arm-atollic-eabi/lib/armv7e-m/fpu\libc_nano.a(lib_a-nano-reallocr.o)
                              c:/program files (x86)/atollic/truestudio for stm32 9.0.1/armtools/bin/../lib/gcc/arm-atollic-eabi/6.3.1/../../../../arm-atollic-eabi/lib/armv7e-m/fpu\libc_nano.a(lib_a-nano-svfprintf.o) (_realloc_r)
c:/program files (x86)/atollic/truestudio for stm32 9.0.1/armtools/bin/../lib/gcc/arm-atollic-eabi/6.3.1/../../../../arm-atollic-eabi/lib/armv7e-m/fpu\libc_nano.a(lib_a-sbrkr.o)
                              c:/program files (x86)/atollic/truestudio for stm32 9.0.1/armtools/bin/../lib/gcc/arm-atollic-eabi/6.3.1/../../../../arm-atollic-eabi/lib/armv7e-m/fpu\libc_nano.a(lib_a-nano-mallocr.o) (_sbrk_r)
c:/program files (x86)/atollic/truestudio for stm32 9.0.1/armtools/bin/../lib/gcc/arm-atollic-eabi/6.3.1/../../../../arm-atollic-eabi/lib/armv7e-m/fpu\libc_nano.a(lib_a-mlock.o)
                              c:/program files (x86)/atollic/truestudio for stm32 9.0.1/armtools/bin/../lib/gcc/arm-atollic-eabi/6.3.1/../../../../arm-atollic-eabi/lib/armv7e-m/fpu\libc_nano.a(lib_a-nano-freer.o) (__malloc_lock)
c:/program files (x86)/atollic/truestudio for stm32 9.0.1/armtools/bin/../lib/gcc/arm-atollic-eabi/6.3.1/../../../../arm-atollic-eabi/lib/armv7e-m/fpu\libc_nano.a(lib_a-nano-msizer.o)
                              c:/program files (x86)/atollic/truestudio for stm32 9.0.1/armtools/bin/../lib/gcc/arm-atollic-eabi/6.3.1/../../../../arm-atollic-eabi/lib/armv7e-m/fpu\libc_nano.a(lib_a-nano-reallocr.o) (_malloc_usable_size_r)
c:/program files (x86)/atollic/truestudio for stm32 9.0.1/armtools/bin/../lib/gcc/arm-atollic-eabi/6.3.1/../../../../arm-atollic-eabi/lib/armv7e-m/fpu\libc_nano.a(lib_a-reent.o)
                              c:/program files (x86)/atollic/truestudio for stm32 9.0.1/armtools/bin/../lib/gcc/arm-atollic-eabi/6.3.1/../../../../arm-atollic-eabi/lib/armv7e-m/fpu\libc_nano.a(lib_a-sbrkr.o) (errno)
c:/program files (x86)/atollic/truestudio for stm32 9.0.1/armtools/bin/../lib/gcc/arm-atollic-eabi/6.3.1/armv7e-m/fpu\libgcc.a(_aeabi_uldivmod.o)
                              Drivers\STM32F4xx_HAL_Driver\Src\stm32f4xx_hal_rcc.o (__aeabi_uldivmod)
c:/program files (x86)/atollic/truestudio for stm32 9.0.1/armtools/bin/../lib/gcc/arm-atollic-eabi/6.3.1/armv7e-m/fpu\libgcc.a(_udivmoddi4.o)
                              c:/program files (x86)/atollic/truestudio for stm32 9.0.1/armtools/bin/../lib/gcc/arm-atollic-eabi/6.3.1/armv7e-m/fpu\libgcc.a(_aeabi_uldivmod.o) (__udivmoddi4)
c:/program files (x86)/atollic/truestudio for stm32 9.0.1/armtools/bin/../lib/gcc/arm-atollic-eabi/6.3.1/armv7e-m/fpu\libgcc.a(_dvmd_tls.o)
                              c:/program files (x86)/atollic/truestudio for stm32 9.0.1/armtools/bin/../lib/gcc/arm-atollic-eabi/6.3.1/armv7e-m/fpu\libgcc.a(_aeabi_uldivmod.o) (__aeabi_ldiv0)
c:/program files (x86)/atollic/truestudio for stm32 9.0.1/armtools/bin/../lib/gcc/arm-atollic-eabi/6.3.1/../../../../arm-atollic-eabi/lib/armv7e-m/fpu\libnosys.a(sbrk.o)
                              c:/program files (x86)/atollic/truestudio for stm32 9.0.1/armtools/bin/../lib/gcc/arm-atollic-eabi/6.3.1/../../../../arm-atollic-eabi/lib/armv7e-m/fpu\libc_nano.a(lib_a-sbrkr.o) (_sbrk)

Allocating common symbols
Common symbol       size              file

LASER_REAR_LEFT_dev_t
                    0x3a4             Src\main.o
RightMotorPWMConfig
                    0x1c              Src\main.o
RangingDataRearLeft
                    0x1c              Src\main.o
RangingDataLeftFront
                    0x1c              Src\main.o
tskEDGLFTREARHandle
                    0x4               Src\main.o
tskEDGLFTFRONTHandle
                    0x4               Src\main.o
defaultTaskHandle   0x4               Src\main.o
dev                 0x3a4             Src\main.o
leftPWMHandle       0x4               Src\main.o
htim4               0x3c              Src\stm32f4xx_hal_timebase_TIM.o
errno               0x4               c:/program files (x86)/atollic/truestudio for stm32 9.0.1/armtools/bin/../lib/gcc/arm-atollic-eabi/6.3.1/../../../../arm-atollic-eabi/lib/armv7e-m/fpu\libc_nano.a(lib_a-reent.o)
LASER_REAR_RIGHT_dev_t
                    0x3a4             Src\main.o
RangingDataLeftRear
                    0x1c              Src\main.o
hi2c1               0x54              Src\main.o
LeftMotorPWMConfig  0x1c              Src\main.o
LASER_LEFT_FRONT_dev_t
                    0x3a4             Src\main.o
_I2CBuffer          0x100             Drivers\BSP\VL53L1X API\api\platform\vl53l1_platform.o
tskLASREARLEFTHandle
                    0x4               Src\main.o
tskLASFRONTRIGHHandle
                    0x4               Src\main.o
uwTick              0x4               Drivers\STM32F4xx_HAL_Driver\Src\stm32f4xx_hal.o
xQueueRegistry      0x40              Middlewares\Third_Party\FreeRTOS\Source\queue.o
pFlash              0x20              Drivers\STM32F4xx_HAL_Driver\Src\stm32f4xx_hal_flash.o
tskEDGRGTFRONTHandle
                    0x4               Src\main.o
RightMotorPID       0x30              Src\main.o
LASER_FRONT_LEFT_dev_t
                    0x3a4             Src\main.o
htim3               0x3c              Src\main.o
LASER_FRONT_RIGHT_dev_t
                    0x3a4             Src\main.o
RangingDataRearRight
                    0x1c              Src\main.o
RangingDataRightFront
                    0x1c              Src\main.o
LeftMotorPID        0x30              Src\main.o
LASER_LEFT_REAR_dev_t
                    0x3a4             Src\main.o
RangingDataFrontRight
                    0x1c              Src\main.o
RangingDataFrontLeft
                    0x1c              Src\main.o
htim1               0x3c              Src\main.o
RangingDataRightRear
                    0x1c              Src\main.o
LASER_RIGHT_REAR_dev_t
                    0x3a4             Src\main.o
htim2               0x3c              Src\main.o
tskEDGRGTREARHandle
                    0x4               Src\main.o
huart2              0x40              Src\main.o
tskLASFRONTLEFTHandle
                    0x4               Src\main.o
rightPWMHandle      0x4               Src\main.o
LASER_RIGHT_FRONT_dev_t
                    0x3a4             Src\main.o
myMutex01Handle     0x4               Src\main.o
Detectionconfig     0x14              Src\main.o

Discarded input sections

 .text          0x00000000        0x0 c:/program files (x86)/atollic/truestudio for stm32 9.0.1/armtools/bin/../lib/gcc/arm-atollic-eabi/6.3.1/armv7e-m/fpu/crti.o
 .data          0x00000000        0x0 c:/program files (x86)/atollic/truestudio for stm32 9.0.1/armtools/bin/../lib/gcc/arm-atollic-eabi/6.3.1/armv7e-m/fpu/crti.o
 .bss           0x00000000        0x0 c:/program files (x86)/atollic/truestudio for stm32 9.0.1/armtools/bin/../lib/gcc/arm-atollic-eabi/6.3.1/armv7e-m/fpu/crti.o
 .data          0x00000000        0x4 c:/program files (x86)/atollic/truestudio for stm32 9.0.1/armtools/bin/../lib/gcc/arm-atollic-eabi/6.3.1/armv7e-m/fpu/crtbegin.o
 .text          0x00000000        0x0 Drivers\BSP\VL53L1X API\api\core\vl53l1_api.o
 .data          0x00000000        0x0 Drivers\BSP\VL53L1X API\api\core\vl53l1_api.o
 .bss           0x00000000        0x0 Drivers\BSP\VL53L1X API\api\core\vl53l1_api.o
 .text.VL53L1_nvm_enable
                0x00000000       0xcc Drivers\BSP\VL53L1X API\api\core\vl53l1_api.o
 .text.VL53L1_nvm_read
                0x00000000       0xbc Drivers\BSP\VL53L1X API\api\core\vl53l1_api.o
 .text.VL53L1_nvm_disable
                0x00000000       0x6c Drivers\BSP\VL53L1X API\api\core\vl53l1_api.o
 .text.VL53L1_read_nvm_raw_data
                0x00000000       0x62 Drivers\BSP\VL53L1X API\api\core\vl53l1_api.o
 .text.SingleTargetXTalkCalibration
                0x00000000      0x274 Drivers\BSP\VL53L1X API\api\core\vl53l1_api.o
 .text.CheckValidRectRoi
                0x00000000       0x4c Drivers\BSP\VL53L1X API\api\core\vl53l1_api.o
 .text.ConvertModeFromLLD
                0x00000000       0x58 Drivers\BSP\VL53L1X API\api\core\vl53l1_api.o
 .text.VL53L1_GetVersion
                0x00000000       0x36 Drivers\BSP\VL53L1X API\api\core\vl53l1_api.o
 .text.VL53L1_GetProductRevision
                0x00000000       0x3c Drivers\BSP\VL53L1X API\api\core\vl53l1_api.o
 .text.VL53L1_GetDeviceInfo
                0x00000000       0x98 Drivers\BSP\VL53L1X API\api\core\vl53l1_api.o
 .text.VL53L1_GetRangeStatusString
                0x00000000       0x2a Drivers\BSP\VL53L1X API\api\core\vl53l1_api.o
 .text.VL53L1_GetPalErrorString
                0x00000000       0x2c Drivers\BSP\VL53L1X API\api\core\vl53l1_api.o
 .text.VL53L1_GetPalStateString
                0x00000000       0x2a Drivers\BSP\VL53L1X API\api\core\vl53l1_api.o
 .text.VL53L1_GetPalState
                0x00000000       0x28 Drivers\BSP\VL53L1X API\api\core\vl53l1_api.o
 .text.VL53L1_GetPresetMode
                0x00000000       0x28 Drivers\BSP\VL53L1X API\api\core\vl53l1_api.o
 .text.VL53L1_GetDistanceMode
                0x00000000       0x28 Drivers\BSP\VL53L1X API\api\core\vl53l1_api.o
 .text.VL53L1_GetNumberOfLimitCheck
                0x00000000       0x22 Drivers\BSP\VL53L1X API\api\core\vl53l1_api.o
 .text.VL53L1_GetLimitCheckInfo
                0x00000000       0x2a Drivers\BSP\VL53L1X API\api\core\vl53l1_api.o
 .text.VL53L1_GetLimitCheckStatus
                0x00000000       0x40 Drivers\BSP\VL53L1X API\api\core\vl53l1_api.o
 .text.VL53L1_GetLimitCheckCurrent
                0x00000000       0x46 Drivers\BSP\VL53L1X API\api\core\vl53l1_api.o
 .text.VL53L1_SetUserROI
                0x00000000       0xa8 Drivers\BSP\VL53L1X API\api\core\vl53l1_api.o
 .text.VL53L1_GetUserROI
                0x00000000       0x6a Drivers\BSP\VL53L1X API\api\core\vl53l1_api.o
 .text.VL53L1_GetNumberOfSequenceSteps
                0x00000000       0x24 Drivers\BSP\VL53L1X API\api\core\vl53l1_api.o
 .text.VL53L1_GetSequenceStepsInfo
                0x00000000       0x2a Drivers\BSP\VL53L1X API\api\core\vl53l1_api.o
 .text.VL53L1_SetSequenceStepEnable
                0x00000000       0x48 Drivers\BSP\VL53L1X API\api\core\vl53l1_api.o
 .text.VL53L1_StopMeasurement
                0x00000000       0x32 Drivers\BSP\VL53L1X API\api\core\vl53l1_api.o
 .text.VL53L1_GetMeasurementDataReady
                0x00000000       0x26 Drivers\BSP\VL53L1X API\api\core\vl53l1_api.o
 .text.VL53L1_WaitMeasurementDataReady
                0x00000000       0x26 Drivers\BSP\VL53L1X API\api\core\vl53l1_api.o
 .text.VL53L1_SetTuningParameter
                0x00000000       0x54 Drivers\BSP\VL53L1X API\api\core\vl53l1_api.o
 .text.VL53L1_GetTuningParameter
                0x00000000       0x54 Drivers\BSP\VL53L1X API\api\core\vl53l1_api.o
 .text.VL53L1_PerformRefSpadManagement
                0x00000000      0x11c Drivers\BSP\VL53L1X API\api\core\vl53l1_api.o
 .text.VL53L1_SetXTalkCompensationEnable
                0x00000000       0x38 Drivers\BSP\VL53L1X API\api\core\vl53l1_api.o
 .text.VL53L1_GetXTalkCompensationEnable
                0x00000000       0x22 Drivers\BSP\VL53L1X API\api\core\vl53l1_api.o
 .text.VL53L1_PerformSingleTargetXTalkCalibration
                0x00000000       0x3c Drivers\BSP\VL53L1X API\api\core\vl53l1_api.o
 .text.VL53L1_SetOffsetCalibrationMode
                0x00000000       0x4e Drivers\BSP\VL53L1X API\api\core\vl53l1_api.o
 .text.VL53L1_PerformOffsetCalibration
                0x00000000       0x6e Drivers\BSP\VL53L1X API\api\core\vl53l1_api.o
 .text.VL53L1_PerformOffsetSimpleCalibration
                0x00000000      0x224 Drivers\BSP\VL53L1X API\api\core\vl53l1_api.o
 .text.VL53L1_SetCalibrationData
                0x00000000       0xe8 Drivers\BSP\VL53L1X API\api\core\vl53l1_api.o
 .text.VL53L1_GetCalibrationData
                0x00000000      0x10a Drivers\BSP\VL53L1X API\api\core\vl53l1_api.o
 .text.VL53L1_GetOpticalCenter
                0x00000000       0x58 Drivers\BSP\VL53L1X API\api\core\vl53l1_api.o
 .text.VL53L1_GetThresholdConfig
                0x00000000       0xe0 Drivers\BSP\VL53L1X API\api\core\vl53l1_api.o
 .text          0x00000000        0x0 Drivers\BSP\VL53L1X API\api\core\vl53l1_api_calibration.o
 .data          0x00000000        0x0 Drivers\BSP\VL53L1X API\api\core\vl53l1_api_calibration.o
 .bss           0x00000000        0x0 Drivers\BSP\VL53L1X API\api\core\vl53l1_api_calibration.o
 .text.VL53L1_run_ref_spad_char
                0x00000000      0x18a Drivers\BSP\VL53L1X API\api\core\vl53l1_api_calibration.o
 .text.VL53L1_run_offset_calibration
                0x00000000      0x620 Drivers\BSP\VL53L1X API\api\core\vl53l1_api_calibration.o
 .text.VL53L1_run_spad_rate_map
                0x00000000       0xbc Drivers\BSP\VL53L1X API\api\core\vl53l1_api_calibration.o
 .text.VL53L1_run_device_test
                0x00000000       0xe8 Drivers\BSP\VL53L1X API\api\core\vl53l1_api_calibration.o
 .debug_info    0x00000000     0x2c48 Drivers\BSP\VL53L1X API\api\core\vl53l1_api_calibration.o
 .debug_abbrev  0x00000000      0x24f Drivers\BSP\VL53L1X API\api\core\vl53l1_api_calibration.o
 .debug_aranges
                0x00000000       0x38 Drivers\BSP\VL53L1X API\api\core\vl53l1_api_calibration.o
 .debug_ranges  0x00000000       0x28 Drivers\BSP\VL53L1X API\api\core\vl53l1_api_calibration.o
 .debug_line    0x00000000      0x665 Drivers\BSP\VL53L1X API\api\core\vl53l1_api_calibration.o
 .debug_str     0x00000000     0x3bd3 Drivers\BSP\VL53L1X API\api\core\vl53l1_api_calibration.o
 .comment       0x00000000       0x7d Drivers\BSP\VL53L1X API\api\core\vl53l1_api_calibration.o
 .debug_frame   0x00000000       0xb0 Drivers\BSP\VL53L1X API\api\core\vl53l1_api_calibration.o
 .ARM.attributes
                0x00000000       0x39 Drivers\BSP\VL53L1X API\api\core\vl53l1_api_calibration.o
 .text          0x00000000        0x0 Drivers\BSP\VL53L1X API\api\core\vl53l1_api_core.o
 .data          0x00000000        0x0 Drivers\BSP\VL53L1X API\api\core\vl53l1_api_core.o
 .bss           0x00000000        0x0 Drivers\BSP\VL53L1X API\api\core\vl53l1_api_core.o
 .text.VL53L1_software_reset
                0x00000000       0x6a Drivers\BSP\VL53L1X API\api\core\vl53l1_api_core.o
 .text.VL53L1_set_part_to_part_data
                0x00000000       0xf4 Drivers\BSP\VL53L1X API\api\core\vl53l1_api_core.o
 .text.VL53L1_get_part_to_part_data
                0x00000000       0xb0 Drivers\BSP\VL53L1X API\api\core\vl53l1_api_core.o
 .text.VL53L1_set_calibration_repeat_period
                0x00000000       0x2c Drivers\BSP\VL53L1X API\api\core\vl53l1_api_core.o
 .text.VL53L1_get_calibration_repeat_period
                0x00000000       0x2c Drivers\BSP\VL53L1X API\api\core\vl53l1_api_core.o
 .text.VL53L1_set_sequence_config_bit
                0x00000000       0x7e Drivers\BSP\VL53L1X API\api\core\vl53l1_api_core.o
 .text.VL53L1_set_interrupt_polarity
                0x00000000       0x48 Drivers\BSP\VL53L1X API\api\core\vl53l1_api_core.o
 .text.VL53L1_set_refspadchar_config_struct
                0x00000000       0x5e Drivers\BSP\VL53L1X API\api\core\vl53l1_api_core.o
 .text.VL53L1_get_refspadchar_config_struct
                0x00000000       0x5e Drivers\BSP\VL53L1X API\api\core\vl53l1_api_core.o
 .text.VL53L1_set_range_ignore_threshold
                0x00000000       0x38 Drivers\BSP\VL53L1X API\api\core\vl53l1_api_core.o
 .text.VL53L1_get_range_ignore_threshold
                0x00000000       0x44 Drivers\BSP\VL53L1X API\api\core\vl53l1_api_core.o
 .text.VL53L1_get_interrupt_polarity
                0x00000000       0x32 Drivers\BSP\VL53L1X API\api\core\vl53l1_api_core.o
 .text.VL53L1_enable_xtalk_compensation
                0x00000000       0xb0 Drivers\BSP\VL53L1X API\api\core\vl53l1_api_core.o
 .text.VL53L1_get_xtalk_compensation_enable
                0x00000000       0x24 Drivers\BSP\VL53L1X API\api\core\vl53l1_api_core.o
 .text.VL53L1_get_lite_xtalk_margin_kcps
                0x00000000       0x2c Drivers\BSP\VL53L1X API\api\core\vl53l1_api_core.o
 .text.VL53L1_set_lite_xtalk_margin_kcps
                0x00000000       0x2c Drivers\BSP\VL53L1X API\api\core\vl53l1_api_core.o
 .text.VL53L1_restore_xtalk_nvm_default
                0x00000000       0x44 Drivers\BSP\VL53L1X API\api\core\vl53l1_api_core.o
 .text.VL53L1_disable_xtalk_compensation
                0x00000000       0x64 Drivers\BSP\VL53L1X API\api\core\vl53l1_api_core.o
 .text.VL53L1_get_vhv_loopbound
                0x00000000       0x30 Drivers\BSP\VL53L1X API\api\core\vl53l1_api_core.o
 .text.VL53L1_get_vhv_config
                0x00000000       0x42 Drivers\BSP\VL53L1X API\api\core\vl53l1_api_core.o
 .text.VL53L1_set_vhv_config
                0x00000000       0x40 Drivers\BSP\VL53L1X API\api\core\vl53l1_api_core.o
 .text.VL53L1_set_GPIO_interrupt_config
                0x00000000       0x8a Drivers\BSP\VL53L1X API\api\core\vl53l1_api_core.o
 .text.VL53L1_set_offset_calibration_mode
                0x00000000       0x2a Drivers\BSP\VL53L1X API\api\core\vl53l1_api_core.o
 .text.VL53L1_get_offset_calibration_mode
                0x00000000       0x2a Drivers\BSP\VL53L1X API\api\core\vl53l1_api_core.o
 .text.VL53L1_set_offset_correction_mode
                0x00000000       0x2a Drivers\BSP\VL53L1X API\api\core\vl53l1_api_core.o
 .text.VL53L1_get_offset_correction_mode
                0x00000000       0x2a Drivers\BSP\VL53L1X API\api\core\vl53l1_api_core.o
 .text.VL53L1_set_tuning_parm
                0x00000000      0x3cc Drivers\BSP\VL53L1X API\api\core\vl53l1_api_core.o
 .text          0x00000000        0x0 Drivers\BSP\VL53L1X API\api\core\vl53l1_api_debug.o
 .data          0x00000000        0x0 Drivers\BSP\VL53L1X API\api\core\vl53l1_api_debug.o
 .bss           0x00000000        0x0 Drivers\BSP\VL53L1X API\api\core\vl53l1_api_debug.o
 .text.VL53L1_get_additional_data
                0x00000000       0x5a Drivers\BSP\VL53L1X API\api\core\vl53l1_api_debug.o
 .debug_info    0x00000000     0x29b2 Drivers\BSP\VL53L1X API\api\core\vl53l1_api_debug.o
 .debug_abbrev  0x00000000      0x1f7 Drivers\BSP\VL53L1X API\api\core\vl53l1_api_debug.o
 .debug_aranges
                0x00000000       0x20 Drivers\BSP\VL53L1X API\api\core\vl53l1_api_debug.o
 .debug_ranges  0x00000000       0x10 Drivers\BSP\VL53L1X API\api\core\vl53l1_api_debug.o
 .debug_line    0x00000000      0x4c6 Drivers\BSP\VL53L1X API\api\core\vl53l1_api_debug.o
 .debug_str     0x00000000     0x3a39 Drivers\BSP\VL53L1X API\api\core\vl53l1_api_debug.o
 .comment       0x00000000       0x7d Drivers\BSP\VL53L1X API\api\core\vl53l1_api_debug.o
 .debug_frame   0x00000000       0x38 Drivers\BSP\VL53L1X API\api\core\vl53l1_api_debug.o
 .ARM.attributes
                0x00000000       0x39 Drivers\BSP\VL53L1X API\api\core\vl53l1_api_debug.o
 .text          0x00000000        0x0 Drivers\BSP\VL53L1X API\api\core\vl53l1_api_preset_modes.o
 .data          0x00000000        0x0 Drivers\BSP\VL53L1X API\api\core\vl53l1_api_preset_modes.o
 .bss           0x00000000        0x0 Drivers\BSP\VL53L1X API\api\core\vl53l1_api_preset_modes.o
 .text          0x00000000        0x0 Drivers\BSP\VL53L1X API\api\core\vl53l1_api_strings.o
 .data          0x00000000        0x0 Drivers\BSP\VL53L1X API\api\core\vl53l1_api_strings.o
 .bss           0x00000000        0x0 Drivers\BSP\VL53L1X API\api\core\vl53l1_api_strings.o
 .rodata        0x00000000      0x14b Drivers\BSP\VL53L1X API\api\core\vl53l1_api_strings.o
 .text.VL53L1_get_range_status_string
                0x00000000       0xbc Drivers\BSP\VL53L1X API\api\core\vl53l1_api_strings.o
 .text.VL53L1_get_pal_state_string
                0x00000000       0xe4 Drivers\BSP\VL53L1X API\api\core\vl53l1_api_strings.o
 .text.VL53L1_get_sequence_steps_info
                0x00000000       0xd8 Drivers\BSP\VL53L1X API\api\core\vl53l1_api_strings.o
 .text.VL53L1_get_limit_check_info
                0x00000000       0x5c Drivers\BSP\VL53L1X API\api\core\vl53l1_api_strings.o
 .debug_info    0x00000000      0xa95 Drivers\BSP\VL53L1X API\api\core\vl53l1_api_strings.o
 .debug_abbrev  0x00000000      0x1b4 Drivers\BSP\VL53L1X API\api\core\vl53l1_api_strings.o
 .debug_aranges
                0x00000000       0x38 Drivers\BSP\VL53L1X API\api\core\vl53l1_api_strings.o
 .debug_ranges  0x00000000       0x28 Drivers\BSP\VL53L1X API\api\core\vl53l1_api_strings.o
 .debug_line    0x00000000      0x3ca Drivers\BSP\VL53L1X API\api\core\vl53l1_api_strings.o
 .debug_str     0x00000000      0x7e2 Drivers\BSP\VL53L1X API\api\core\vl53l1_api_strings.o
 .comment       0x00000000       0x7d Drivers\BSP\VL53L1X API\api\core\vl53l1_api_strings.o
 .debug_frame   0x00000000       0xa0 Drivers\BSP\VL53L1X API\api\core\vl53l1_api_strings.o
 .ARM.attributes
                0x00000000       0x39 Drivers\BSP\VL53L1X API\api\core\vl53l1_api_strings.o
 .text          0x00000000        0x0 Drivers\BSP\VL53L1X API\api\core\vl53l1_core.o
 .data          0x00000000        0x0 Drivers\BSP\VL53L1X API\api\core\vl53l1_core.o
 .bss           0x00000000        0x0 Drivers\BSP\VL53L1X API\api\core\vl53l1_core.o
 .text.VL53L1_init_system_results
                0x00000000       0xcc Drivers\BSP\VL53L1X API\api\core\vl53l1_core.o
 .text.VL53L1_i2c_decode_with_mask
                0x00000000       0x5e Drivers\BSP\VL53L1X API\api\core\vl53l1_core.o
 .text.VL53L1_i2c_encode_int32_t
                0x00000000       0x52 Drivers\BSP\VL53L1X API\api\core\vl53l1_core.o
 .text.VL53L1_start_test
                0x00000000       0x34 Drivers\BSP\VL53L1X API\api\core\vl53l1_core.o
 .text.VL53L1_set_firmware_enable_register
                0x00000000       0x3c Drivers\BSP\VL53L1X API\api\core\vl53l1_core.o
 .text.VL53L1_enable_firmware
                0x00000000       0x24 Drivers\BSP\VL53L1X API\api\core\vl53l1_core.o
 .text.VL53L1_disable_firmware
                0x00000000       0x24 Drivers\BSP\VL53L1X API\api\core\vl53l1_core.o
 .text.VL53L1_set_powerforce_register
                0x00000000       0x3c Drivers\BSP\VL53L1X API\api\core\vl53l1_core.o
 .text.VL53L1_enable_powerforce
                0x00000000       0x24 Drivers\BSP\VL53L1X API\api\core\vl53l1_core.o
 .text.VL53L1_disable_powerforce
                0x00000000       0x24 Drivers\BSP\VL53L1X API\api\core\vl53l1_core.o
 .text.VL53L1_clear_interrupt
                0x00000000       0x38 Drivers\BSP\VL53L1X API\api\core\vl53l1_core.o
 .text.VL53L1_calc_crosstalk_plane_offset_with_margin
                0x00000000       0x4c Drivers\BSP\VL53L1X API\api\core\vl53l1_core.o
 .text.VL53L1_encode_vcsel_period
                0x00000000       0x26 Drivers\BSP\VL53L1X API\api\core\vl53l1_core.o
 .text.VL53L1_decode_unsigned_integer
                0x00000000       0x46 Drivers\BSP\VL53L1X API\api\core\vl53l1_core.o
 .text.VL53L1_encode_unsigned_integer
                0x00000000       0x52 Drivers\BSP\VL53L1X API\api\core\vl53l1_core.o
 .text.VL53L1_spad_number_to_byte_bit_index
                0x00000000       0x42 Drivers\BSP\VL53L1X API\api\core\vl53l1_core.o
 .text.VL53L1_decode_zone_limits
                0x00000000       0xee Drivers\BSP\VL53L1X API\api\core\vl53l1_core.o
 .text.VL53L1_is_aperture_location
                0x00000000       0x52 Drivers\BSP\VL53L1X API\api\core\vl53l1_core.o
 .text.VL53L1_calc_mm_effective_spads
                0x00000000      0x19c Drivers\BSP\VL53L1X API\api\core\vl53l1_core.o
 .text.VL53L1_set_ref_spad_char_config
                0x00000000      0x13a Drivers\BSP\VL53L1X API\api\core\vl53l1_core.o
 .text.VL53L1_set_ssc_config
                0x00000000       0xfe Drivers\BSP\VL53L1X API\api\core\vl53l1_core.o
 .text.VL53L1_get_spad_rate_data
                0x00000000       0xea Drivers\BSP\VL53L1X API\api\core\vl53l1_core.o
 .text          0x00000000        0x0 Drivers\BSP\VL53L1X API\api\core\vl53l1_core_support.o
 .data          0x00000000        0x0 Drivers\BSP\VL53L1X API\api\core\vl53l1_core_support.o
 .bss           0x00000000        0x0 Drivers\BSP\VL53L1X API\api\core\vl53l1_core_support.o
 .text          0x00000000        0x0 Drivers\BSP\VL53L1X API\api\core\vl53l1_error_strings.o
 .data          0x00000000        0x0 Drivers\BSP\VL53L1X API\api\core\vl53l1_error_strings.o
 .bss           0x00000000        0x0 Drivers\BSP\VL53L1X API\api\core\vl53l1_error_strings.o
 .rodata        0x00000000        0x1 Drivers\BSP\VL53L1X API\api\core\vl53l1_error_strings.o
 .text.VL53L1_get_pal_error_string
                0x00000000       0x2c Drivers\BSP\VL53L1X API\api\core\vl53l1_error_strings.o
 .debug_info    0x00000000      0x8f8 Drivers\BSP\VL53L1X API\api\core\vl53l1_error_strings.o
 .debug_abbrev  0x00000000      0x191 Drivers\BSP\VL53L1X API\api\core\vl53l1_error_strings.o
 .debug_aranges
                0x00000000       0x20 Drivers\BSP\VL53L1X API\api\core\vl53l1_error_strings.o
 .debug_ranges  0x00000000       0x10 Drivers\BSP\VL53L1X API\api\core\vl53l1_error_strings.o
 .debug_line    0x00000000      0x270 Drivers\BSP\VL53L1X API\api\core\vl53l1_error_strings.o
 .debug_str     0x00000000      0x679 Drivers\BSP\VL53L1X API\api\core\vl53l1_error_strings.o
 .comment       0x00000000       0x7d Drivers\BSP\VL53L1X API\api\core\vl53l1_error_strings.o
 .debug_frame   0x00000000       0x34 Drivers\BSP\VL53L1X API\api\core\vl53l1_error_strings.o
 .ARM.attributes
                0x00000000       0x39 Drivers\BSP\VL53L1X API\api\core\vl53l1_error_strings.o
 .text          0x00000000        0x0 Drivers\BSP\VL53L1X API\api\core\vl53l1_register_funcs.o
 .data          0x00000000        0x0 Drivers\BSP\VL53L1X API\api\core\vl53l1_register_funcs.o
 .bss           0x00000000        0x0 Drivers\BSP\VL53L1X API\api\core\vl53l1_register_funcs.o
 .text.VL53L1_set_static_nvm_managed
                0x00000000       0x4e Drivers\BSP\VL53L1X API\api\core\vl53l1_register_funcs.o
 .text.VL53L1_set_customer_nvm_managed
                0x00000000       0x4e Drivers\BSP\VL53L1X API\api\core\vl53l1_register_funcs.o
 .text.VL53L1_i2c_decode_static_config
                0x00000000      0x1b6 Drivers\BSP\VL53L1X API\api\core\vl53l1_register_funcs.o
 .text.VL53L1_set_static_config
                0x00000000       0x54 Drivers\BSP\VL53L1X API\api\core\vl53l1_register_funcs.o
 .text.VL53L1_i2c_decode_general_config
                0x00000000      0x106 Drivers\BSP\VL53L1X API\api\core\vl53l1_register_funcs.o
 .text.VL53L1_set_general_config
                0x00000000       0x4e Drivers\BSP\VL53L1X API\api\core\vl53l1_register_funcs.o
 .text.VL53L1_set_dynamic_config
                0x00000000       0x4e Drivers\BSP\VL53L1X API\api\core\vl53l1_register_funcs.o
 .text.VL53L1_get_system_results
                0x00000000       0x54 Drivers\BSP\VL53L1X API\api\core\vl53l1_register_funcs.o
 .text          0x00000000        0x0 Drivers\BSP\VL53L1X API\api\core\vl53l1_silicon_core.o
 .data          0x00000000        0x0 Drivers\BSP\VL53L1X API\api\core\vl53l1_silicon_core.o
 .bss           0x00000000        0x0 Drivers\BSP\VL53L1X API\api\core\vl53l1_silicon_core.o
 .text.VL53L1_is_firmware_ready_silicon
                0x00000000       0xb6 Drivers\BSP\VL53L1X API\api\core\vl53l1_silicon_core.o
 .debug_info    0x00000000     0x2955 Drivers\BSP\VL53L1X API\api\core\vl53l1_silicon_core.o
 .debug_abbrev  0x00000000      0x1fe Drivers\BSP\VL53L1X API\api\core\vl53l1_silicon_core.o
 .debug_aranges
                0x00000000       0x20 Drivers\BSP\VL53L1X API\api\core\vl53l1_silicon_core.o
 .debug_ranges  0x00000000       0x10 Drivers\BSP\VL53L1X API\api\core\vl53l1_silicon_core.o
 .debug_line    0x00000000      0x4de Drivers\BSP\VL53L1X API\api\core\vl53l1_silicon_core.o
 .debug_str     0x00000000     0x3a37 Drivers\BSP\VL53L1X API\api\core\vl53l1_silicon_core.o
 .comment       0x00000000       0x7d Drivers\BSP\VL53L1X API\api\core\vl53l1_silicon_core.o
 .debug_frame   0x00000000       0x34 Drivers\BSP\VL53L1X API\api\core\vl53l1_silicon_core.o
 .ARM.attributes
                0x00000000       0x39 Drivers\BSP\VL53L1X API\api\core\vl53l1_silicon_core.o
 .text          0x00000000        0x0 Drivers\BSP\VL53L1X API\api\core\vl53l1_wait.o
 .data          0x00000000        0x0 Drivers\BSP\VL53L1X API\api\core\vl53l1_wait.o
 .bss           0x00000000        0x0 Drivers\BSP\VL53L1X API\api\core\vl53l1_wait.o
 .text.VL53L1_wait_for_boot_completion
                0x00000000       0x70 Drivers\BSP\VL53L1X API\api\core\vl53l1_wait.o
 .text.VL53L1_wait_for_firmware_ready
                0x00000000       0x8c Drivers\BSP\VL53L1X API\api\core\vl53l1_wait.o
 .text.VL53L1_wait_for_range_completion
                0x00000000       0x70 Drivers\BSP\VL53L1X API\api\core\vl53l1_wait.o
 .text.VL53L1_wait_for_test_completion
                0x00000000       0x70 Drivers\BSP\VL53L1X API\api\core\vl53l1_wait.o
 .text.VL53L1_is_boot_complete
                0x00000000       0x58 Drivers\BSP\VL53L1X API\api\core\vl53l1_wait.o
 .text.VL53L1_is_firmware_ready
                0x00000000       0x34 Drivers\BSP\VL53L1X API\api\core\vl53l1_wait.o
 .text.VL53L1_is_new_data_ready
                0x00000000       0x72 Drivers\BSP\VL53L1X API\api\core\vl53l1_wait.o
 .text.VL53L1_poll_for_firmware_ready
                0x00000000       0xae Drivers\BSP\VL53L1X API\api\core\vl53l1_wait.o
 .text.VL53L1_poll_for_range_completion
                0x00000000       0x5c Drivers\BSP\VL53L1X API\api\core\vl53l1_wait.o
 .text          0x00000000        0x0 Drivers\BSP\VL53L1X API\api\platform\vl53l1_platform.o
 .data          0x00000000        0x0 Drivers\BSP\VL53L1X API\api\platform\vl53l1_platform.o
 .bss           0x00000000        0x0 Drivers\BSP\VL53L1X API\api\platform\vl53l1_platform.o
 .text.VL53L1_WrWord
                0x00000000       0x64 Drivers\BSP\VL53L1X API\api\platform\vl53l1_platform.o
 .text.VL53L1_WrDWord
                0x00000000       0x74 Drivers\BSP\VL53L1X API\api\platform\vl53l1_platform.o
 .text.VL53L1_UpdateByte
                0x00000000       0x68 Drivers\BSP\VL53L1X API\api\platform\vl53l1_platform.o
 .text.VL53L1_RdDWord
                0x00000000       0x88 Drivers\BSP\VL53L1X API\api\platform\vl53l1_platform.o
 .text.VL53L1_GetTimerFrequency
                0x00000000       0x1c Drivers\BSP\VL53L1X API\api\platform\vl53l1_platform.o
 .text          0x00000000        0x0 Drivers\STM32F4xx_HAL_Driver\Src\stm32f4xx_hal.o
 .data          0x00000000        0x0 Drivers\STM32F4xx_HAL_Driver\Src\stm32f4xx_hal.o
 .bss           0x00000000        0x0 Drivers\STM32F4xx_HAL_Driver\Src\stm32f4xx_hal.o
 .data.uwTickPrio
                0x00000000        0x4 Drivers\STM32F4xx_HAL_Driver\Src\stm32f4xx_hal.o
 .text.HAL_DeInit
                0x00000000       0x58 Drivers\STM32F4xx_HAL_Driver\Src\stm32f4xx_hal.o
 .text.HAL_MspInit
                0x00000000        0xe Drivers\STM32F4xx_HAL_Driver\Src\stm32f4xx_hal.o
 .text.HAL_MspDeInit
                0x00000000        0xe Drivers\STM32F4xx_HAL_Driver\Src\stm32f4xx_hal.o
 .text.HAL_InitTick
                0x00000000       0x60 Drivers\STM32F4xx_HAL_Driver\Src\stm32f4xx_hal.o
 .text.HAL_GetTickPrio
                0x00000000       0x18 Drivers\STM32F4xx_HAL_Driver\Src\stm32f4xx_hal.o
 .text.HAL_SetTickFreq
                0x00000000       0x40 Drivers\STM32F4xx_HAL_Driver\Src\stm32f4xx_hal.o
 .text.HAL_GetTickFreq
                0x00000000       0x18 Drivers\STM32F4xx_HAL_Driver\Src\stm32f4xx_hal.o
 .text.HAL_SuspendTick
                0x00000000       0x20 Drivers\STM32F4xx_HAL_Driver\Src\stm32f4xx_hal.o
 .text.HAL_ResumeTick
                0x00000000       0x20 Drivers\STM32F4xx_HAL_Driver\Src\stm32f4xx_hal.o
 .text.HAL_GetHalVersion
                0x00000000       0x14 Drivers\STM32F4xx_HAL_Driver\Src\stm32f4xx_hal.o
 .text.HAL_GetREVID
                0x00000000       0x18 Drivers\STM32F4xx_HAL_Driver\Src\stm32f4xx_hal.o
 .text.HAL_GetDEVID
                0x00000000       0x1c Drivers\STM32F4xx_HAL_Driver\Src\stm32f4xx_hal.o
 .text.HAL_DBGMCU_EnableDBGSleepMode
                0x00000000       0x20 Drivers\STM32F4xx_HAL_Driver\Src\stm32f4xx_hal.o
 .text.HAL_DBGMCU_DisableDBGSleepMode
                0x00000000       0x20 Drivers\STM32F4xx_HAL_Driver\Src\stm32f4xx_hal.o
 .text.HAL_DBGMCU_EnableDBGStopMode
                0x00000000       0x20 Drivers\STM32F4xx_HAL_Driver\Src\stm32f4xx_hal.o
 .text.HAL_DBGMCU_DisableDBGStopMode
                0x00000000       0x20 Drivers\STM32F4xx_HAL_Driver\Src\stm32f4xx_hal.o
 .text.HAL_DBGMCU_EnableDBGStandbyMode
                0x00000000       0x20 Drivers\STM32F4xx_HAL_Driver\Src\stm32f4xx_hal.o
 .text.HAL_DBGMCU_DisableDBGStandbyMode
                0x00000000       0x20 Drivers\STM32F4xx_HAL_Driver\Src\stm32f4xx_hal.o
 .text.HAL_EnableCompensationCell
                0x00000000       0x18 Drivers\STM32F4xx_HAL_Driver\Src\stm32f4xx_hal.o
 .text.HAL_DisableCompensationCell
                0x00000000       0x18 Drivers\STM32F4xx_HAL_Driver\Src\stm32f4xx_hal.o
 .text.HAL_GetUID
                0x00000000       0x3c Drivers\STM32F4xx_HAL_Driver\Src\stm32f4xx_hal.o
 .text          0x00000000        0x0 Drivers\STM32F4xx_HAL_Driver\Src\stm32f4xx_hal_cortex.o
 .data          0x00000000        0x0 Drivers\STM32F4xx_HAL_Driver\Src\stm32f4xx_hal_cortex.o
 .bss           0x00000000        0x0 Drivers\STM32F4xx_HAL_Driver\Src\stm32f4xx_hal_cortex.o
 .text.NVIC_DisableIRQ
                0x00000000       0x34 Drivers\STM32F4xx_HAL_Driver\Src\stm32f4xx_hal_cortex.o
 .text.NVIC_GetPendingIRQ
                0x00000000       0x38 Drivers\STM32F4xx_HAL_Driver\Src\stm32f4xx_hal_cortex.o
 .text.NVIC_SetPendingIRQ
                0x00000000       0x34 Drivers\STM32F4xx_HAL_Driver\Src\stm32f4xx_hal_cortex.o
 .text.NVIC_ClearPendingIRQ
                0x00000000       0x34 Drivers\STM32F4xx_HAL_Driver\Src\stm32f4xx_hal_cortex.o
 .text.NVIC_GetActive
                0x00000000       0x38 Drivers\STM32F4xx_HAL_Driver\Src\stm32f4xx_hal_cortex.o
 .text.NVIC_GetPriority
                0x00000000       0x50 Drivers\STM32F4xx_HAL_Driver\Src\stm32f4xx_hal_cortex.o
 .text.NVIC_DecodePriority
                0x00000000       0x6a Drivers\STM32F4xx_HAL_Driver\Src\stm32f4xx_hal_cortex.o
 .text.NVIC_SystemReset
                0x00000000       0x28 Drivers\STM32F4xx_HAL_Driver\Src\stm32f4xx_hal_cortex.o
 .text.HAL_NVIC_DisableIRQ
                0x00000000       0x1c Drivers\STM32F4xx_HAL_Driver\Src\stm32f4xx_hal_cortex.o
 .text.HAL_NVIC_SystemReset
                0x00000000        0xc Drivers\STM32F4xx_HAL_Driver\Src\stm32f4xx_hal_cortex.o
 .text.HAL_MPU_Disable
                0x00000000       0x2c Drivers\STM32F4xx_HAL_Driver\Src\stm32f4xx_hal_cortex.o
 .text.HAL_MPU_Enable
                0x00000000       0x3c Drivers\STM32F4xx_HAL_Driver\Src\stm32f4xx_hal_cortex.o
 .text.HAL_MPU_ConfigRegion
                0x00000000       0x88 Drivers\STM32F4xx_HAL_Driver\Src\stm32f4xx_hal_cortex.o
 .text.HAL_NVIC_GetPriorityGrouping
                0x00000000        0xe Drivers\STM32F4xx_HAL_Driver\Src\stm32f4xx_hal_cortex.o
 .text.HAL_NVIC_GetPriority
                0x00000000       0x2c Drivers\STM32F4xx_HAL_Driver\Src\stm32f4xx_hal_cortex.o
 .text.HAL_NVIC_SetPendingIRQ
                0x00000000       0x1c Drivers\STM32F4xx_HAL_Driver\Src\stm32f4xx_hal_cortex.o
 .text.HAL_NVIC_GetPendingIRQ
                0x00000000       0x1e Drivers\STM32F4xx_HAL_Driver\Src\stm32f4xx_hal_cortex.o
 .text.HAL_NVIC_ClearPendingIRQ
                0x00000000       0x1c Drivers\STM32F4xx_HAL_Driver\Src\stm32f4xx_hal_cortex.o
 .text.HAL_NVIC_GetActive
                0x00000000       0x1e Drivers\STM32F4xx_HAL_Driver\Src\stm32f4xx_hal_cortex.o
 .text.HAL_SYSTICK_IRQHandler
                0x00000000        0xc Drivers\STM32F4xx_HAL_Driver\Src\stm32f4xx_hal_cortex.o
 .text.HAL_SYSTICK_Callback
                0x00000000        0xe Drivers\STM32F4xx_HAL_Driver\Src\stm32f4xx_hal_cortex.o
 .text          0x00000000        0x0 Drivers\STM32F4xx_HAL_Driver\Src\stm32f4xx_hal_dma.o
 .data          0x00000000        0x0 Drivers\STM32F4xx_HAL_Driver\Src\stm32f4xx_hal_dma.o
 .bss           0x00000000        0x0 Drivers\STM32F4xx_HAL_Driver\Src\stm32f4xx_hal_dma.o
 .text.HAL_DMA_Init
                0x00000000      0x15c Drivers\STM32F4xx_HAL_Driver\Src\stm32f4xx_hal_dma.o
 .text.HAL_DMA_DeInit
                0x00000000       0x98 Drivers\STM32F4xx_HAL_Driver\Src\stm32f4xx_hal_dma.o
 .text.HAL_DMA_Start
                0x00000000       0x76 Drivers\STM32F4xx_HAL_Driver\Src\stm32f4xx_hal_dma.o
 .text.HAL_DMA_Start_IT
                0x00000000       0xc0 Drivers\STM32F4xx_HAL_Driver\Src\stm32f4xx_hal_dma.o
 .text.HAL_DMA_Abort
                0x00000000       0xe0 Drivers\STM32F4xx_HAL_Driver\Src\stm32f4xx_hal_dma.o
 .text.HAL_DMA_Abort_IT
                0x00000000       0x44 Drivers\STM32F4xx_HAL_Driver\Src\stm32f4xx_hal_dma.o
 .text.HAL_DMA_PollForTransfer
                0x00000000      0x1be Drivers\STM32F4xx_HAL_Driver\Src\stm32f4xx_hal_dma.o
 .text.HAL_DMA_IRQHandler
                0x00000000      0x314 Drivers\STM32F4xx_HAL_Driver\Src\stm32f4xx_hal_dma.o
 .text.HAL_DMA_RegisterCallback
                0x00000000       0xa8 Drivers\STM32F4xx_HAL_Driver\Src\stm32f4xx_hal_dma.o
 .text.HAL_DMA_UnRegisterCallback
                0x00000000       0xd4 Drivers\STM32F4xx_HAL_Driver\Src\stm32f4xx_hal_dma.o
 .text.HAL_DMA_GetState
                0x00000000       0x1c Drivers\STM32F4xx_HAL_Driver\Src\stm32f4xx_hal_dma.o
 .text.HAL_DMA_GetError
                0x00000000       0x18 Drivers\STM32F4xx_HAL_Driver\Src\stm32f4xx_hal_dma.o
 .text.DMA_SetConfig
                0x00000000       0x5c Drivers\STM32F4xx_HAL_Driver\Src\stm32f4xx_hal_dma.o
 .text.DMA_CalcBaseAndBitshift
                0x00000000       0x6c Drivers\STM32F4xx_HAL_Driver\Src\stm32f4xx_hal_dma.o
 .text.DMA_CheckFifoParam
                0x00000000       0xf4 Drivers\STM32F4xx_HAL_Driver\Src\stm32f4xx_hal_dma.o
 .rodata.flagBitshiftOffset.8883
                0x00000000        0x8 Drivers\STM32F4xx_HAL_Driver\Src\stm32f4xx_hal_dma.o
 .debug_info    0x00000000     0x111b Drivers\STM32F4xx_HAL_Driver\Src\stm32f4xx_hal_dma.o
 .debug_abbrev  0x00000000      0x279 Drivers\STM32F4xx_HAL_Driver\Src\stm32f4xx_hal_dma.o
 .debug_aranges
                0x00000000       0x90 Drivers\STM32F4xx_HAL_Driver\Src\stm32f4xx_hal_dma.o
 .debug_ranges  0x00000000       0x80 Drivers\STM32F4xx_HAL_Driver\Src\stm32f4xx_hal_dma.o
 .debug_line    0x00000000      0x583 Drivers\STM32F4xx_HAL_Driver\Src\stm32f4xx_hal_dma.o
 .debug_str     0x00000000      0xc04 Drivers\STM32F4xx_HAL_Driver\Src\stm32f4xx_hal_dma.o
 .comment       0x00000000       0x7d Drivers\STM32F4xx_HAL_Driver\Src\stm32f4xx_hal_dma.o
 .debug_frame   0x00000000      0x250 Drivers\STM32F4xx_HAL_Driver\Src\stm32f4xx_hal_dma.o
 .ARM.attributes
                0x00000000       0x39 Drivers\STM32F4xx_HAL_Driver\Src\stm32f4xx_hal_dma.o
 .text          0x00000000        0x0 Drivers\STM32F4xx_HAL_Driver\Src\stm32f4xx_hal_dma_ex.o
 .data          0x00000000        0x0 Drivers\STM32F4xx_HAL_Driver\Src\stm32f4xx_hal_dma_ex.o
 .bss           0x00000000        0x0 Drivers\STM32F4xx_HAL_Driver\Src\stm32f4xx_hal_dma_ex.o
 .text.HAL_DMAEx_MultiBufferStart
                0x00000000       0x96 Drivers\STM32F4xx_HAL_Driver\Src\stm32f4xx_hal_dma_ex.o
 .text.HAL_DMAEx_MultiBufferStart_IT
                0x00000000     0x1478 Drivers\STM32F4xx_HAL_Driver\Src\stm32f4xx_hal_dma_ex.o
 .text.HAL_DMAEx_ChangeMemory
                0x00000000       0x34 Drivers\STM32F4xx_HAL_Driver\Src\stm32f4xx_hal_dma_ex.o
 .text.DMA_MultiBufferSetConfig
                0x00000000       0x4c Drivers\STM32F4xx_HAL_Driver\Src\stm32f4xx_hal_dma_ex.o
 .debug_info    0x00000000      0xd86 Drivers\STM32F4xx_HAL_Driver\Src\stm32f4xx_hal_dma_ex.o
 .debug_abbrev  0x00000000      0x20f Drivers\STM32F4xx_HAL_Driver\Src\stm32f4xx_hal_dma_ex.o
 .debug_aranges
                0x00000000       0x38 Drivers\STM32F4xx_HAL_Driver\Src\stm32f4xx_hal_dma_ex.o
 .debug_ranges  0x00000000       0x28 Drivers\STM32F4xx_HAL_Driver\Src\stm32f4xx_hal_dma_ex.o
 .debug_line    0x00000000      0xe5c Drivers\STM32F4xx_HAL_Driver\Src\stm32f4xx_hal_dma_ex.o
 .debug_str     0x00000000      0xa05 Drivers\STM32F4xx_HAL_Driver\Src\stm32f4xx_hal_dma_ex.o
 .comment       0x00000000       0x7d Drivers\STM32F4xx_HAL_Driver\Src\stm32f4xx_hal_dma_ex.o
 .debug_frame   0x00000000       0xac Drivers\STM32F4xx_HAL_Driver\Src\stm32f4xx_hal_dma_ex.o
 .ARM.attributes
                0x00000000       0x39 Drivers\STM32F4xx_HAL_Driver\Src\stm32f4xx_hal_dma_ex.o
 .text          0x00000000        0x0 Drivers\STM32F4xx_HAL_Driver\Src\stm32f4xx_hal_flash.o
 .data          0x00000000        0x0 Drivers\STM32F4xx_HAL_Driver\Src\stm32f4xx_hal_flash.o
 .bss           0x00000000        0x0 Drivers\STM32F4xx_HAL_Driver\Src\stm32f4xx_hal_flash.o
 .text.HAL_FLASH_Program
                0x00000000       0xa8 Drivers\STM32F4xx_HAL_Driver\Src\stm32f4xx_hal_flash.o
 .text.HAL_FLASH_Program_IT
                0x00000000       0x9c Drivers\STM32F4xx_HAL_Driver\Src\stm32f4xx_hal_flash.o
 .text.HAL_FLASH_IRQHandler
                0x00000000      0x140 Drivers\STM32F4xx_HAL_Driver\Src\stm32f4xx_hal_flash.o
 .text.HAL_FLASH_EndOfOperationCallback
                0x00000000       0x14 Drivers\STM32F4xx_HAL_Driver\Src\stm32f4xx_hal_flash.o
 .text.HAL_FLASH_OperationErrorCallback
                0x00000000       0x14 Drivers\STM32F4xx_HAL_Driver\Src\stm32f4xx_hal_flash.o
 .text.HAL_FLASH_Unlock
                0x00000000       0x44 Drivers\STM32F4xx_HAL_Driver\Src\stm32f4xx_hal_flash.o
 .text.HAL_FLASH_Lock
                0x00000000       0x20 Drivers\STM32F4xx_HAL_Driver\Src\stm32f4xx_hal_flash.o
 .text.HAL_FLASH_OB_Unlock
                0x00000000       0x38 Drivers\STM32F4xx_HAL_Driver\Src\stm32f4xx_hal_flash.o
 .text.HAL_FLASH_OB_Lock
                0x00000000       0x20 Drivers\STM32F4xx_HAL_Driver\Src\stm32f4xx_hal_flash.o
 .text.HAL_FLASH_OB_Launch
                0x00000000       0x28 Drivers\STM32F4xx_HAL_Driver\Src\stm32f4xx_hal_flash.o
 .text.HAL_FLASH_GetError
                0x00000000       0x18 Drivers\STM32F4xx_HAL_Driver\Src\stm32f4xx_hal_flash.o
 .text.FLASH_WaitForLastOperation
                0x00000000       0x80 Drivers\STM32F4xx_HAL_Driver\Src\stm32f4xx_hal_flash.o
 .text.FLASH_Program_DoubleWord
                0x00000000       0x58 Drivers\STM32F4xx_HAL_Driver\Src\stm32f4xx_hal_flash.o
 .text.FLASH_Program_Word
                0x00000000       0x44 Drivers\STM32F4xx_HAL_Driver\Src\stm32f4xx_hal_flash.o
 .text.FLASH_Program_HalfWord
                0x00000000       0x48 Drivers\STM32F4xx_HAL_Driver\Src\stm32f4xx_hal_flash.o
 .text.FLASH_Program_Byte
                0x00000000       0x44 Drivers\STM32F4xx_HAL_Driver\Src\stm32f4xx_hal_flash.o
 .text.FLASH_SetErrorCode
                0x00000000       0xcc Drivers\STM32F4xx_HAL_Driver\Src\stm32f4xx_hal_flash.o
 .debug_info    0x00000000      0xdc4 Drivers\STM32F4xx_HAL_Driver\Src\stm32f4xx_hal_flash.o
 .debug_abbrev  0x00000000      0x2df Drivers\STM32F4xx_HAL_Driver\Src\stm32f4xx_hal_flash.o
 .debug_aranges
                0x00000000       0xa0 Drivers\STM32F4xx_HAL_Driver\Src\stm32f4xx_hal_flash.o
 .debug_ranges  0x00000000       0x90 Drivers\STM32F4xx_HAL_Driver\Src\stm32f4xx_hal_flash.o
 .debug_line    0x00000000      0x498 Drivers\STM32F4xx_HAL_Driver\Src\stm32f4xx_hal_flash.o
 .debug_str     0x00000000      0x9bd Drivers\STM32F4xx_HAL_Driver\Src\stm32f4xx_hal_flash.o
 .comment       0x00000000       0x7d Drivers\STM32F4xx_HAL_Driver\Src\stm32f4xx_hal_flash.o
 .debug_frame   0x00000000      0x27c Drivers\STM32F4xx_HAL_Driver\Src\stm32f4xx_hal_flash.o
 .ARM.attributes
                0x00000000       0x39 Drivers\STM32F4xx_HAL_Driver\Src\stm32f4xx_hal_flash.o
 COMMON         0x00000000       0x20 Drivers\STM32F4xx_HAL_Driver\Src\stm32f4xx_hal_flash.o
 .text          0x00000000        0x0 Drivers\STM32F4xx_HAL_Driver\Src\stm32f4xx_hal_flash_ex.o
 .data          0x00000000        0x0 Drivers\STM32F4xx_HAL_Driver\Src\stm32f4xx_hal_flash_ex.o
 .bss           0x00000000        0x0 Drivers\STM32F4xx_HAL_Driver\Src\stm32f4xx_hal_flash_ex.o
 .text.HAL_FLASHEx_Erase
                0x00000000       0xe0 Drivers\STM32F4xx_HAL_Driver\Src\stm32f4xx_hal_flash_ex.o
 .text.HAL_FLASHEx_Erase_IT
                0x00000000       0xac Drivers\STM32F4xx_HAL_Driver\Src\stm32f4xx_hal_flash_ex.o
 .text.HAL_FLASHEx_OBProgram
                0x00000000       0xdc Drivers\STM32F4xx_HAL_Driver\Src\stm32f4xx_hal_flash_ex.o
 .text.HAL_FLASHEx_OBGetConfig
                0x00000000       0x46 Drivers\STM32F4xx_HAL_Driver\Src\stm32f4xx_hal_flash_ex.o
 .text.HAL_FLASHEx_AdvOBProgram
                0x00000000       0x48 Drivers\STM32F4xx_HAL_Driver\Src\stm32f4xx_hal_flash_ex.o
 .text.HAL_FLASHEx_AdvOBGetConfig
                0x00000000       0x24 Drivers\STM32F4xx_HAL_Driver\Src\stm32f4xx_hal_flash_ex.o
 .text.HAL_FLASHEx_OB_SelectPCROP
                0x00000000       0x34 Drivers\STM32F4xx_HAL_Driver\Src\stm32f4xx_hal_flash_ex.o
 .text.HAL_FLASHEx_OB_DeSelectPCROP
                0x00000000       0x30 Drivers\STM32F4xx_HAL_Driver\Src\stm32f4xx_hal_flash_ex.o
 .text.FLASH_MassErase
                0x00000000       0x48 Drivers\STM32F4xx_HAL_Driver\Src\stm32f4xx_hal_flash_ex.o
 .text.FLASH_Erase_Sector
                0x00000000       0x90 Drivers\STM32F4xx_HAL_Driver\Src\stm32f4xx_hal_flash_ex.o
 .text.FLASH_OB_EnableWRP
                0x00000000       0x44 Drivers\STM32F4xx_HAL_Driver\Src\stm32f4xx_hal_flash_ex.o
 .text.FLASH_OB_DisableWRP
                0x00000000       0x40 Drivers\STM32F4xx_HAL_Driver\Src\stm32f4xx_hal_flash_ex.o
 .text.FLASH_OB_EnablePCROP
                0x00000000       0x40 Drivers\STM32F4xx_HAL_Driver\Src\stm32f4xx_hal_flash_ex.o
 .text.FLASH_OB_DisablePCROP
                0x00000000       0x44 Drivers\STM32F4xx_HAL_Driver\Src\stm32f4xx_hal_flash_ex.o
 .text.FLASH_OB_RDP_LevelConfig
                0x00000000       0x34 Drivers\STM32F4xx_HAL_Driver\Src\stm32f4xx_hal_flash_ex.o
 .text.FLASH_OB_UserConfig
                0x00000000       0x60 Drivers\STM32F4xx_HAL_Driver\Src\stm32f4xx_hal_flash_ex.o
 .text.FLASH_OB_BOR_LevelConfig
                0x00000000       0x3c Drivers\STM32F4xx_HAL_Driver\Src\stm32f4xx_hal_flash_ex.o
 .text.FLASH_OB_GetUser
                0x00000000       0x20 Drivers\STM32F4xx_HAL_Driver\Src\stm32f4xx_hal_flash_ex.o
 .text.FLASH_OB_GetWRP
                0x00000000       0x18 Drivers\STM32F4xx_HAL_Driver\Src\stm32f4xx_hal_flash_ex.o
 .text.FLASH_OB_GetRDP
                0x00000000       0x40 Drivers\STM32F4xx_HAL_Driver\Src\stm32f4xx_hal_flash_ex.o
 .text.FLASH_OB_GetBOR
                0x00000000       0x20 Drivers\STM32F4xx_HAL_Driver\Src\stm32f4xx_hal_flash_ex.o
 .text.FLASH_FlushCaches
                0x00000000       0x8c Drivers\STM32F4xx_HAL_Driver\Src\stm32f4xx_hal_flash_ex.o
 .debug_info    0x00000000     0x1043 Drivers\STM32F4xx_HAL_Driver\Src\stm32f4xx_hal_flash_ex.o
 .debug_abbrev  0x00000000      0x2ce Drivers\STM32F4xx_HAL_Driver\Src\stm32f4xx_hal_flash_ex.o
 .debug_aranges
                0x00000000       0xc8 Drivers\STM32F4xx_HAL_Driver\Src\stm32f4xx_hal_flash_ex.o
 .debug_ranges  0x00000000       0xb8 Drivers\STM32F4xx_HAL_Driver\Src\stm32f4xx_hal_flash_ex.o
 .debug_line    0x00000000      0x52f Drivers\STM32F4xx_HAL_Driver\Src\stm32f4xx_hal_flash_ex.o
 .debug_str     0x00000000      0xafc Drivers\STM32F4xx_HAL_Driver\Src\stm32f4xx_hal_flash_ex.o
 .comment       0x00000000       0x7d Drivers\STM32F4xx_HAL_Driver\Src\stm32f4xx_hal_flash_ex.o
 .debug_frame   0x00000000      0x334 Drivers\STM32F4xx_HAL_Driver\Src\stm32f4xx_hal_flash_ex.o
 .ARM.attributes
                0x00000000       0x39 Drivers\STM32F4xx_HAL_Driver\Src\stm32f4xx_hal_flash_ex.o
 .text          0x00000000        0x0 Drivers\STM32F4xx_HAL_Driver\Src\stm32f4xx_hal_flash_ramfunc.o
 .data          0x00000000        0x0 Drivers\STM32F4xx_HAL_Driver\Src\stm32f4xx_hal_flash_ramfunc.o
 .bss           0x00000000        0x0 Drivers\STM32F4xx_HAL_Driver\Src\stm32f4xx_hal_flash_ramfunc.o
 .debug_info    0x00000000      0x927 Drivers\STM32F4xx_HAL_Driver\Src\stm32f4xx_hal_flash_ramfunc.o
 .debug_abbrev  0x00000000      0x15c Drivers\STM32F4xx_HAL_Driver\Src\stm32f4xx_hal_flash_ramfunc.o
 .debug_aranges
                0x00000000       0x18 Drivers\STM32F4xx_HAL_Driver\Src\stm32f4xx_hal_flash_ramfunc.o
 .debug_line    0x00000000      0x203 Drivers\STM32F4xx_HAL_Driver\Src\stm32f4xx_hal_flash_ramfunc.o
 .debug_str     0x00000000      0x68a Drivers\STM32F4xx_HAL_Driver\Src\stm32f4xx_hal_flash_ramfunc.o
 .comment       0x00000000       0x7d Drivers\STM32F4xx_HAL_Driver\Src\stm32f4xx_hal_flash_ramfunc.o
 .ARM.attributes
                0x00000000       0x39 Drivers\STM32F4xx_HAL_Driver\Src\stm32f4xx_hal_flash_ramfunc.o
 .text          0x00000000        0x0 Drivers\STM32F4xx_HAL_Driver\Src\stm32f4xx_hal_gpio.o
 .data          0x00000000        0x0 Drivers\STM32F4xx_HAL_Driver\Src\stm32f4xx_hal_gpio.o
 .bss           0x00000000        0x0 Drivers\STM32F4xx_HAL_Driver\Src\stm32f4xx_hal_gpio.o
 .text.HAL_GPIO_DeInit
                0x00000000      0x1c8 Drivers\STM32F4xx_HAL_Driver\Src\stm32f4xx_hal_gpio.o
 .text.HAL_GPIO_ReadPin
                0x00000000       0x30 Drivers\STM32F4xx_HAL_Driver\Src\stm32f4xx_hal_gpio.o
 .text.HAL_GPIO_TogglePin
                0x00000000       0x24 Drivers\STM32F4xx_HAL_Driver\Src\stm32f4xx_hal_gpio.o
 .text.HAL_GPIO_LockPin
                0x00000000       0x50 Drivers\STM32F4xx_HAL_Driver\Src\stm32f4xx_hal_gpio.o
 .text          0x00000000        0x0 Drivers\STM32F4xx_HAL_Driver\Src\stm32f4xx_hal_i2c.o
 .data          0x00000000        0x0 Drivers\STM32F4xx_HAL_Driver\Src\stm32f4xx_hal_i2c.o
 .bss           0x00000000        0x0 Drivers\STM32F4xx_HAL_Driver\Src\stm32f4xx_hal_i2c.o
 .text.HAL_I2C_DeInit
                0x00000000       0x5e Drivers\STM32F4xx_HAL_Driver\Src\stm32f4xx_hal_i2c.o
 .text.HAL_I2C_MspInit
                0x00000000       0x14 Drivers\STM32F4xx_HAL_Driver\Src\stm32f4xx_hal_i2c.o
 .text.HAL_I2C_MspDeInit
                0x00000000       0x14 Drivers\STM32F4xx_HAL_Driver\Src\stm32f4xx_hal_i2c.o
 .text.HAL_I2C_Slave_Transmit
                0x00000000      0x234 Drivers\STM32F4xx_HAL_Driver\Src\stm32f4xx_hal_i2c.o
 .text.HAL_I2C_Slave_Receive
                0x00000000      0x224 Drivers\STM32F4xx_HAL_Driver\Src\stm32f4xx_hal_i2c.o
 .text.HAL_I2C_Master_Transmit_IT
                0x00000000      0x134 Drivers\STM32F4xx_HAL_Driver\Src\stm32f4xx_hal_i2c.o
 .text.HAL_I2C_Master_Receive_IT
                0x00000000      0x144 Drivers\STM32F4xx_HAL_Driver\Src\stm32f4xx_hal_i2c.o
 .text.HAL_I2C_Master_Sequential_Transmit_IT
                0x00000000      0x170 Drivers\STM32F4xx_HAL_Driver\Src\stm32f4xx_hal_i2c.o
 .text.HAL_I2C_Master_Sequential_Receive_IT
                0x00000000      0x19c Drivers\STM32F4xx_HAL_Driver\Src\stm32f4xx_hal_i2c.o
 .text.HAL_I2C_Slave_Transmit_IT
                0x00000000      0x138 Drivers\STM32F4xx_HAL_Driver\Src\stm32f4xx_hal_i2c.o
 .text.HAL_I2C_Slave_Receive_IT
                0x00000000      0x134 Drivers\STM32F4xx_HAL_Driver\Src\stm32f4xx_hal_i2c.o
 .text.HAL_I2C_Slave_Sequential_Transmit_IT
                0x00000000       0xe2 Drivers\STM32F4xx_HAL_Driver\Src\stm32f4xx_hal_i2c.o
 .text.HAL_I2C_Slave_Sequential_Receive_IT
                0x00000000       0xe2 Drivers\STM32F4xx_HAL_Driver\Src\stm32f4xx_hal_i2c.o
 .text.HAL_I2C_EnableListen_IT
                0x00000000       0x6c Drivers\STM32F4xx_HAL_Driver\Src\stm32f4xx_hal_i2c.o
 .text.HAL_I2C_DisableListen_IT
                0x00000000       0x76 Drivers\STM32F4xx_HAL_Driver\Src\stm32f4xx_hal_i2c.o
 .text.HAL_I2C_Master_Transmit_DMA
                0x00000000      0x1e4 Drivers\STM32F4xx_HAL_Driver\Src\stm32f4xx_hal_i2c.o
 .text.HAL_I2C_Master_Receive_DMA
                0x00000000      0x1e4 Drivers\STM32F4xx_HAL_Driver\Src\stm32f4xx_hal_i2c.o
 .text.HAL_I2C_Master_Abort_IT
                0x00000000       0x8e Drivers\STM32F4xx_HAL_Driver\Src\stm32f4xx_hal_i2c.o
 .text.HAL_I2C_Slave_Transmit_DMA
                0x00000000      0x198 Drivers\STM32F4xx_HAL_Driver\Src\stm32f4xx_hal_i2c.o
 .text.HAL_I2C_Slave_Receive_DMA
                0x00000000      0x198 Drivers\STM32F4xx_HAL_Driver\Src\stm32f4xx_hal_i2c.o
 .text.HAL_I2C_Mem_Write
                0x00000000      0x214 Drivers\STM32F4xx_HAL_Driver\Src\stm32f4xx_hal_i2c.o
 .text.HAL_I2C_Mem_Read
                0x00000000      0x464 Drivers\STM32F4xx_HAL_Driver\Src\stm32f4xx_hal_i2c.o
 .text.HAL_I2C_Mem_Write_IT
                0x00000000      0x148 Drivers\STM32F4xx_HAL_Driver\Src\stm32f4xx_hal_i2c.o
 .text.HAL_I2C_Mem_Read_IT
                0x00000000      0x160 Drivers\STM32F4xx_HAL_Driver\Src\stm32f4xx_hal_i2c.o
 .text.HAL_I2C_Mem_Write_DMA
                0x00000000      0x1e4 Drivers\STM32F4xx_HAL_Driver\Src\stm32f4xx_hal_i2c.o
 .text.HAL_I2C_Mem_Read_DMA
                0x00000000      0x284 Drivers\STM32F4xx_HAL_Driver\Src\stm32f4xx_hal_i2c.o
 .text.HAL_I2C_IsDeviceReady
                0x00000000      0x260 Drivers\STM32F4xx_HAL_Driver\Src\stm32f4xx_hal_i2c.o
 .text.HAL_I2C_EV_IRQHandler
                0x00000000      0x208 Drivers\STM32F4xx_HAL_Driver\Src\stm32f4xx_hal_i2c.o
 .text.HAL_I2C_ER_IRQHandler
                0x00000000      0x154 Drivers\STM32F4xx_HAL_Driver\Src\stm32f4xx_hal_i2c.o
 .text.HAL_I2C_MasterTxCpltCallback
                0x00000000       0x14 Drivers\STM32F4xx_HAL_Driver\Src\stm32f4xx_hal_i2c.o
 .text.HAL_I2C_MasterRxCpltCallback
                0x00000000       0x14 Drivers\STM32F4xx_HAL_Driver\Src\stm32f4xx_hal_i2c.o
 .text.HAL_I2C_SlaveTxCpltCallback
                0x00000000       0x14 Drivers\STM32F4xx_HAL_Driver\Src\stm32f4xx_hal_i2c.o
 .text.HAL_I2C_SlaveRxCpltCallback
                0x00000000       0x14 Drivers\STM32F4xx_HAL_Driver\Src\stm32f4xx_hal_i2c.o
 .text.HAL_I2C_AddrCallback
                0x00000000       0x1c Drivers\STM32F4xx_HAL_Driver\Src\stm32f4xx_hal_i2c.o
 .text.HAL_I2C_ListenCpltCallback
                0x00000000       0x14 Drivers\STM32F4xx_HAL_Driver\Src\stm32f4xx_hal_i2c.o
 .text.HAL_I2C_MemTxCpltCallback
                0x00000000       0x14 Drivers\STM32F4xx_HAL_Driver\Src\stm32f4xx_hal_i2c.o
 .text.HAL_I2C_MemRxCpltCallback
                0x00000000       0x14 Drivers\STM32F4xx_HAL_Driver\Src\stm32f4xx_hal_i2c.o
 .text.HAL_I2C_ErrorCallback
                0x00000000       0x14 Drivers\STM32F4xx_HAL_Driver\Src\stm32f4xx_hal_i2c.o
 .text.HAL_I2C_AbortCpltCallback
                0x00000000       0x14 Drivers\STM32F4xx_HAL_Driver\Src\stm32f4xx_hal_i2c.o
 .text.HAL_I2C_GetState
                0x00000000       0x1c Drivers\STM32F4xx_HAL_Driver\Src\stm32f4xx_hal_i2c.o
 .text.HAL_I2C_GetMode
                0x00000000       0x1c Drivers\STM32F4xx_HAL_Driver\Src\stm32f4xx_hal_i2c.o
 .text.HAL_I2C_GetError
                0x00000000       0x18 Drivers\STM32F4xx_HAL_Driver\Src\stm32f4xx_hal_i2c.o
 .text.I2C_MasterTransmit_TXE
                0x00000000      0x1ea Drivers\STM32F4xx_HAL_Driver\Src\stm32f4xx_hal_i2c.o
 .text.I2C_MasterTransmit_BTF
                0x00000000       0xea Drivers\STM32F4xx_HAL_Driver\Src\stm32f4xx_hal_i2c.o
 .text.I2C_MasterReceive_RXNE
                0x00000000       0xf4 Drivers\STM32F4xx_HAL_Driver\Src\stm32f4xx_hal_i2c.o
 .text.I2C_MasterReceive_BTF
                0x00000000      0x19c Drivers\STM32F4xx_HAL_Driver\Src\stm32f4xx_hal_i2c.o
 .text.I2C_Master_SB
                0x00000000       0xd6 Drivers\STM32F4xx_HAL_Driver\Src\stm32f4xx_hal_i2c.o
 .text.I2C_Master_ADD10
                0x00000000       0x22 Drivers\STM32F4xx_HAL_Driver\Src\stm32f4xx_hal_i2c.o
 .text.I2C_Master_ADDR
                0x00000000      0x2c6 Drivers\STM32F4xx_HAL_Driver\Src\stm32f4xx_hal_i2c.o
 .text.I2C_SlaveTransmit_TXE
                0x00000000       0x7a Drivers\STM32F4xx_HAL_Driver\Src\stm32f4xx_hal_i2c.o
 .text.I2C_SlaveTransmit_BTF
                0x00000000       0x40 Drivers\STM32F4xx_HAL_Driver\Src\stm32f4xx_hal_i2c.o
 .text.I2C_SlaveReceive_RXNE
                0x00000000       0x7c Drivers\STM32F4xx_HAL_Driver\Src\stm32f4xx_hal_i2c.o
 .text.I2C_SlaveReceive_BTF
                0x00000000       0x42 Drivers\STM32F4xx_HAL_Driver\Src\stm32f4xx_hal_i2c.o
 .text.I2C_Slave_ADDR
                0x00000000       0x54 Drivers\STM32F4xx_HAL_Driver\Src\stm32f4xx_hal_i2c.o
 .text.I2C_Slave_STOPF
                0x00000000      0x18c Drivers\STM32F4xx_HAL_Driver\Src\stm32f4xx_hal_i2c.o
 .text.I2C_Slave_AF
                0x00000000       0xe4 Drivers\STM32F4xx_HAL_Driver\Src\stm32f4xx_hal_i2c.o
 .text.I2C_ITError
                0x00000000      0x208 Drivers\STM32F4xx_HAL_Driver\Src\stm32f4xx_hal_i2c.o
 .text.I2C_RequestMemoryWrite
                0x00000000      0x124 Drivers\STM32F4xx_HAL_Driver\Src\stm32f4xx_hal_i2c.o
 .text.I2C_RequestMemoryRead
                0x00000000      0x1c4 Drivers\STM32F4xx_HAL_Driver\Src\stm32f4xx_hal_i2c.o
 .text.I2C_DMAXferCplt
                0x00000000       0xec Drivers\STM32F4xx_HAL_Driver\Src\stm32f4xx_hal_i2c.o
 .text.I2C_DMAError
                0x00000000       0x5a Drivers\STM32F4xx_HAL_Driver\Src\stm32f4xx_hal_i2c.o
 .text.I2C_DMAAbort
                0x00000000       0x9c Drivers\STM32F4xx_HAL_Driver\Src\stm32f4xx_hal_i2c.o
 .text.I2C_WaitOnSTOPFlagUntilTimeout
                0x00000000       0x72 Drivers\STM32F4xx_HAL_Driver\Src\stm32f4xx_hal_i2c.o
 .text          0x00000000        0x0 Drivers\STM32F4xx_HAL_Driver\Src\stm32f4xx_hal_i2c_ex.o
 .data          0x00000000        0x0 Drivers\STM32F4xx_HAL_Driver\Src\stm32f4xx_hal_i2c_ex.o
 .bss           0x00000000        0x0 Drivers\STM32F4xx_HAL_Driver\Src\stm32f4xx_hal_i2c_ex.o
 .text.HAL_I2CEx_ConfigAnalogFilter
                0x00000000       0x78 Drivers\STM32F4xx_HAL_Driver\Src\stm32f4xx_hal_i2c_ex.o
 .text.HAL_I2CEx_ConfigDigitalFilter
                0x00000000       0x7e Drivers\STM32F4xx_HAL_Driver\Src\stm32f4xx_hal_i2c_ex.o
 .debug_info    0x00000000      0xecd Drivers\STM32F4xx_HAL_Driver\Src\stm32f4xx_hal_i2c_ex.o
 .debug_abbrev  0x00000000      0x1d9 Drivers\STM32F4xx_HAL_Driver\Src\stm32f4xx_hal_i2c_ex.o
 .debug_aranges
                0x00000000       0x28 Drivers\STM32F4xx_HAL_Driver\Src\stm32f4xx_hal_i2c_ex.o
 .debug_ranges  0x00000000       0x18 Drivers\STM32F4xx_HAL_Driver\Src\stm32f4xx_hal_i2c_ex.o
 .debug_line    0x00000000      0x2f2 Drivers\STM32F4xx_HAL_Driver\Src\stm32f4xx_hal_i2c_ex.o
 .debug_str     0x00000000      0xc01 Drivers\STM32F4xx_HAL_Driver\Src\stm32f4xx_hal_i2c_ex.o
 .comment       0x00000000       0x7d Drivers\STM32F4xx_HAL_Driver\Src\stm32f4xx_hal_i2c_ex.o
 .debug_frame   0x00000000       0x60 Drivers\STM32F4xx_HAL_Driver\Src\stm32f4xx_hal_i2c_ex.o
 .ARM.attributes
                0x00000000       0x39 Drivers\STM32F4xx_HAL_Driver\Src\stm32f4xx_hal_i2c_ex.o
 .text          0x00000000        0x0 Drivers\STM32F4xx_HAL_Driver\Src\stm32f4xx_hal_pwr.o
 .data          0x00000000        0x0 Drivers\STM32F4xx_HAL_Driver\Src\stm32f4xx_hal_pwr.o
 .bss           0x00000000        0x0 Drivers\STM32F4xx_HAL_Driver\Src\stm32f4xx_hal_pwr.o
 .text.HAL_PWR_DeInit
                0x00000000       0x2c Drivers\STM32F4xx_HAL_Driver\Src\stm32f4xx_hal_pwr.o
 .text.HAL_PWR_EnableBkUpAccess
                0x00000000       0x18 Drivers\STM32F4xx_HAL_Driver\Src\stm32f4xx_hal_pwr.o
 .text.HAL_PWR_DisableBkUpAccess
                0x00000000       0x18 Drivers\STM32F4xx_HAL_Driver\Src\stm32f4xx_hal_pwr.o
 .text.HAL_PWR_ConfigPVD
                0x00000000       0xc0 Drivers\STM32F4xx_HAL_Driver\Src\stm32f4xx_hal_pwr.o
 .text.HAL_PWR_EnablePVD
                0x00000000       0x18 Drivers\STM32F4xx_HAL_Driver\Src\stm32f4xx_hal_pwr.o
 .text.HAL_PWR_DisablePVD
                0x00000000       0x18 Drivers\STM32F4xx_HAL_Driver\Src\stm32f4xx_hal_pwr.o
 .text.HAL_PWR_EnableWakeUpPin
                0x00000000       0x24 Drivers\STM32F4xx_HAL_Driver\Src\stm32f4xx_hal_pwr.o
 .text.HAL_PWR_DisableWakeUpPin
                0x00000000       0x28 Drivers\STM32F4xx_HAL_Driver\Src\stm32f4xx_hal_pwr.o
 .text.HAL_PWR_EnterSLEEPMode
                0x00000000       0x38 Drivers\STM32F4xx_HAL_Driver\Src\stm32f4xx_hal_pwr.o
 .text.HAL_PWR_EnterSTOPMode
                0x00000000       0x58 Drivers\STM32F4xx_HAL_Driver\Src\stm32f4xx_hal_pwr.o
 .text.HAL_PWR_EnterSTANDBYMode
                0x00000000       0x30 Drivers\STM32F4xx_HAL_Driver\Src\stm32f4xx_hal_pwr.o
 .text.HAL_PWR_PVD_IRQHandler
                0x00000000       0x24 Drivers\STM32F4xx_HAL_Driver\Src\stm32f4xx_hal_pwr.o
 .text.HAL_PWR_PVDCallback
                0x00000000        0xe Drivers\STM32F4xx_HAL_Driver\Src\stm32f4xx_hal_pwr.o
 .text.HAL_PWR_EnableSleepOnExit
                0x00000000       0x20 Drivers\STM32F4xx_HAL_Driver\Src\stm32f4xx_hal_pwr.o
 .text.HAL_PWR_DisableSleepOnExit
                0x00000000       0x20 Drivers\STM32F4xx_HAL_Driver\Src\stm32f4xx_hal_pwr.o
 .text.HAL_PWR_EnableSEVOnPend
                0x00000000       0x20 Drivers\STM32F4xx_HAL_Driver\Src\stm32f4xx_hal_pwr.o
 .text.HAL_PWR_DisableSEVOnPend
                0x00000000       0x20 Drivers\STM32F4xx_HAL_Driver\Src\stm32f4xx_hal_pwr.o
 .debug_info    0x00000000     0x1001 Drivers\STM32F4xx_HAL_Driver\Src\stm32f4xx_hal_pwr.o
 .debug_abbrev  0x00000000      0x21d Drivers\STM32F4xx_HAL_Driver\Src\stm32f4xx_hal_pwr.o
 .debug_aranges
                0x00000000       0xa0 Drivers\STM32F4xx_HAL_Driver\Src\stm32f4xx_hal_pwr.o
 .debug_ranges  0x00000000       0x90 Drivers\STM32F4xx_HAL_Driver\Src\stm32f4xx_hal_pwr.o
 .debug_line    0x00000000      0x419 Drivers\STM32F4xx_HAL_Driver\Src\stm32f4xx_hal_pwr.o
 .debug_str     0x00000000      0xa05 Drivers\STM32F4xx_HAL_Driver\Src\stm32f4xx_hal_pwr.o
 .comment       0x00000000       0x7d Drivers\STM32F4xx_HAL_Driver\Src\stm32f4xx_hal_pwr.o
 .debug_frame   0x00000000      0x254 Drivers\STM32F4xx_HAL_Driver\Src\stm32f4xx_hal_pwr.o
 .ARM.attributes
                0x00000000       0x39 Drivers\STM32F4xx_HAL_Driver\Src\stm32f4xx_hal_pwr.o
 .text          0x00000000        0x0 Drivers\STM32F4xx_HAL_Driver\Src\stm32f4xx_hal_pwr_ex.o
 .data          0x00000000        0x0 Drivers\STM32F4xx_HAL_Driver\Src\stm32f4xx_hal_pwr_ex.o
 .bss           0x00000000        0x0 Drivers\STM32F4xx_HAL_Driver\Src\stm32f4xx_hal_pwr_ex.o
 .text.HAL_PWREx_EnableBkUpReg
                0x00000000       0x4c Drivers\STM32F4xx_HAL_Driver\Src\stm32f4xx_hal_pwr_ex.o
 .text.HAL_PWREx_DisableBkUpReg
                0x00000000       0x4c Drivers\STM32F4xx_HAL_Driver\Src\stm32f4xx_hal_pwr_ex.o
 .text.HAL_PWREx_EnableFlashPowerDown
                0x00000000       0x18 Drivers\STM32F4xx_HAL_Driver\Src\stm32f4xx_hal_pwr_ex.o
 .text.HAL_PWREx_DisableFlashPowerDown
                0x00000000       0x18 Drivers\STM32F4xx_HAL_Driver\Src\stm32f4xx_hal_pwr_ex.o
 .text.HAL_PWREx_GetVoltageRange
                0x00000000       0x1c Drivers\STM32F4xx_HAL_Driver\Src\stm32f4xx_hal_pwr_ex.o
 .text.HAL_PWREx_ControlVoltageScaling
                0x00000000       0xf4 Drivers\STM32F4xx_HAL_Driver\Src\stm32f4xx_hal_pwr_ex.o
 .text.HAL_PWREx_EnableMainRegulatorLowVoltage
                0x00000000       0x18 Drivers\STM32F4xx_HAL_Driver\Src\stm32f4xx_hal_pwr_ex.o
 .text.HAL_PWREx_DisableMainRegulatorLowVoltage
                0x00000000       0x18 Drivers\STM32F4xx_HAL_Driver\Src\stm32f4xx_hal_pwr_ex.o
 .text.HAL_PWREx_EnableLowRegulatorLowVoltage
                0x00000000       0x18 Drivers\STM32F4xx_HAL_Driver\Src\stm32f4xx_hal_pwr_ex.o
 .text.HAL_PWREx_DisableLowRegulatorLowVoltage
                0x00000000       0x18 Drivers\STM32F4xx_HAL_Driver\Src\stm32f4xx_hal_pwr_ex.o
 .debug_info    0x00000000      0xcd4 Drivers\STM32F4xx_HAL_Driver\Src\stm32f4xx_hal_pwr_ex.o
 .debug_abbrev  0x00000000      0x26b Drivers\STM32F4xx_HAL_Driver\Src\stm32f4xx_hal_pwr_ex.o
 .debug_aranges
                0x00000000       0x68 Drivers\STM32F4xx_HAL_Driver\Src\stm32f4xx_hal_pwr_ex.o
 .debug_ranges  0x00000000       0x58 Drivers\STM32F4xx_HAL_Driver\Src\stm32f4xx_hal_pwr_ex.o
 .debug_line    0x00000000      0x37a Drivers\STM32F4xx_HAL_Driver\Src\stm32f4xx_hal_pwr_ex.o
 .debug_str     0x00000000      0x954 Drivers\STM32F4xx_HAL_Driver\Src\stm32f4xx_hal_pwr_ex.o
 .comment       0x00000000       0x7d Drivers\STM32F4xx_HAL_Driver\Src\stm32f4xx_hal_pwr_ex.o
 .debug_frame   0x00000000      0x15c Drivers\STM32F4xx_HAL_Driver\Src\stm32f4xx_hal_pwr_ex.o
 .ARM.attributes
                0x00000000       0x39 Drivers\STM32F4xx_HAL_Driver\Src\stm32f4xx_hal_pwr_ex.o
 .text          0x00000000        0x0 Drivers\STM32F4xx_HAL_Driver\Src\stm32f4xx_hal_rcc.o
 .data          0x00000000        0x0 Drivers\STM32F4xx_HAL_Driver\Src\stm32f4xx_hal_rcc.o
 .bss           0x00000000        0x0 Drivers\STM32F4xx_HAL_Driver\Src\stm32f4xx_hal_rcc.o
 .text.HAL_RCC_DeInit
                0x00000000       0x10 Drivers\STM32F4xx_HAL_Driver\Src\stm32f4xx_hal_rcc.o
 .text.HAL_RCC_MCOConfig
                0x00000000       0xd0 Drivers\STM32F4xx_HAL_Driver\Src\stm32f4xx_hal_rcc.o
 .text.HAL_RCC_EnableCSS
                0x00000000       0x18 Drivers\STM32F4xx_HAL_Driver\Src\stm32f4xx_hal_rcc.o
 .text.HAL_RCC_DisableCSS
                0x00000000       0x18 Drivers\STM32F4xx_HAL_Driver\Src\stm32f4xx_hal_rcc.o
 .text.HAL_RCC_GetOscConfig
                0x00000000      0x128 Drivers\STM32F4xx_HAL_Driver\Src\stm32f4xx_hal_rcc.o
 .text.HAL_RCC_NMI_IRQHandler
                0x00000000       0x28 Drivers\STM32F4xx_HAL_Driver\Src\stm32f4xx_hal_rcc.o
 .text.HAL_RCC_CSSCallback
                0x00000000        0xe Drivers\STM32F4xx_HAL_Driver\Src\stm32f4xx_hal_rcc.o
 .text          0x00000000        0x0 Drivers\STM32F4xx_HAL_Driver\Src\stm32f4xx_hal_rcc_ex.o
 .data          0x00000000        0x0 Drivers\STM32F4xx_HAL_Driver\Src\stm32f4xx_hal_rcc_ex.o
 .bss           0x00000000        0x0 Drivers\STM32F4xx_HAL_Driver\Src\stm32f4xx_hal_rcc_ex.o
 .text.HAL_RCCEx_PeriphCLKConfig
                0x00000000      0x1dc Drivers\STM32F4xx_HAL_Driver\Src\stm32f4xx_hal_rcc_ex.o
 .text.HAL_RCCEx_GetPeriphCLKConfig
                0x00000000       0x74 Drivers\STM32F4xx_HAL_Driver\Src\stm32f4xx_hal_rcc_ex.o
 .text.HAL_RCCEx_GetPeriphCLKFreq
                0x00000000       0xb8 Drivers\STM32F4xx_HAL_Driver\Src\stm32f4xx_hal_rcc_ex.o
 .text.HAL_RCCEx_EnablePLLI2S
                0x00000000       0x88 Drivers\STM32F4xx_HAL_Driver\Src\stm32f4xx_hal_rcc_ex.o
 .text.HAL_RCCEx_DisablePLLI2S
                0x00000000       0x44 Drivers\STM32F4xx_HAL_Driver\Src\stm32f4xx_hal_rcc_ex.o
 .text.HAL_RCC_DeInit
                0x00000000      0x194 Drivers\STM32F4xx_HAL_Driver\Src\stm32f4xx_hal_rcc_ex.o
 .debug_info    0x00000000      0xda5 Drivers\STM32F4xx_HAL_Driver\Src\stm32f4xx_hal_rcc_ex.o
 .debug_abbrev  0x00000000      0x221 Drivers\STM32F4xx_HAL_Driver\Src\stm32f4xx_hal_rcc_ex.o
 .debug_aranges
                0x00000000       0x48 Drivers\STM32F4xx_HAL_Driver\Src\stm32f4xx_hal_rcc_ex.o
 .debug_ranges  0x00000000       0x38 Drivers\STM32F4xx_HAL_Driver\Src\stm32f4xx_hal_rcc_ex.o
 .debug_line    0x00000000      0x3e0 Drivers\STM32F4xx_HAL_Driver\Src\stm32f4xx_hal_rcc_ex.o
 .debug_str     0x00000000      0x960 Drivers\STM32F4xx_HAL_Driver\Src\stm32f4xx_hal_rcc_ex.o
 .comment       0x00000000       0x7d Drivers\STM32F4xx_HAL_Driver\Src\stm32f4xx_hal_rcc_ex.o
 .debug_frame   0x00000000       0xf0 Drivers\STM32F4xx_HAL_Driver\Src\stm32f4xx_hal_rcc_ex.o
 .ARM.attributes
                0x00000000       0x39 Drivers\STM32F4xx_HAL_Driver\Src\stm32f4xx_hal_rcc_ex.o
 .text          0x00000000        0x0 Drivers\STM32F4xx_HAL_Driver\Src\stm32f4xx_hal_tim.o
 .data          0x00000000        0x0 Drivers\STM32F4xx_HAL_Driver\Src\stm32f4xx_hal_tim.o
 .bss           0x00000000        0x0 Drivers\STM32F4xx_HAL_Driver\Src\stm32f4xx_hal_tim.o
 .text.HAL_TIM_Base_DeInit
                0x00000000       0x60 Drivers\STM32F4xx_HAL_Driver\Src\stm32f4xx_hal_tim.o
 .text.HAL_TIM_Base_MspDeInit
                0x00000000       0x14 Drivers\STM32F4xx_HAL_Driver\Src\stm32f4xx_hal_tim.o
 .text.HAL_TIM_Base_Stop
                0x00000000       0x56 Drivers\STM32F4xx_HAL_Driver\Src\stm32f4xx_hal_tim.o
 .text.HAL_TIM_Base_Stop_IT
                0x00000000       0x56 Drivers\STM32F4xx_HAL_Driver\Src\stm32f4xx_hal_tim.o
 .text.HAL_TIM_Base_Start_DMA
                0x00000000       0x98 Drivers\STM32F4xx_HAL_Driver\Src\stm32f4xx_hal_tim.o
 .text.HAL_TIM_Base_Stop_DMA
                0x00000000       0x5e Drivers\STM32F4xx_HAL_Driver\Src\stm32f4xx_hal_tim.o
 .text.HAL_TIM_OC_Init
                0x00000000       0x56 Drivers\STM32F4xx_HAL_Driver\Src\stm32f4xx_hal_tim.o
 .text.HAL_TIM_OC_DeInit
                0x00000000       0x60 Drivers\STM32F4xx_HAL_Driver\Src\stm32f4xx_hal_tim.o
 .text.HAL_TIM_OC_MspInit
                0x00000000       0x14 Drivers\STM32F4xx_HAL_Driver\Src\stm32f4xx_hal_tim.o
 .text.HAL_TIM_OC_MspDeInit
                0x00000000       0x14 Drivers\STM32F4xx_HAL_Driver\Src\stm32f4xx_hal_tim.o
 .text.HAL_TIM_OC_Start
                0x00000000       0x50 Drivers\STM32F4xx_HAL_Driver\Src\stm32f4xx_hal_tim.o
 .text.HAL_TIM_OC_Stop
                0x00000000       0x90 Drivers\STM32F4xx_HAL_Driver\Src\stm32f4xx_hal_tim.o
 .text.HAL_TIM_OC_Start_IT
                0x00000000       0xdc Drivers\STM32F4xx_HAL_Driver\Src\stm32f4xx_hal_tim.o
 .text.HAL_TIM_OC_Stop_IT
                0x00000000      0x11c Drivers\STM32F4xx_HAL_Driver\Src\stm32f4xx_hal_tim.o
 .text.HAL_TIM_OC_Start_DMA
                0x00000000      0x1ac Drivers\STM32F4xx_HAL_Driver\Src\stm32f4xx_hal_tim.o
 .text.HAL_TIM_OC_Stop_DMA
                0x00000000      0x124 Drivers\STM32F4xx_HAL_Driver\Src\stm32f4xx_hal_tim.o
 .text.HAL_TIM_PWM_DeInit
                0x00000000       0x60 Drivers\STM32F4xx_HAL_Driver\Src\stm32f4xx_hal_tim.o
 .text.HAL_TIM_PWM_MspInit
                0x00000000       0x14 Drivers\STM32F4xx_HAL_Driver\Src\stm32f4xx_hal_tim.o
 .text.HAL_TIM_PWM_MspDeInit
                0x00000000       0x14 Drivers\STM32F4xx_HAL_Driver\Src\stm32f4xx_hal_tim.o
 .text.HAL_TIM_PWM_Stop
                0x00000000       0x98 Drivers\STM32F4xx_HAL_Driver\Src\stm32f4xx_hal_tim.o
 .text.HAL_TIM_PWM_Start_IT
                0x00000000       0xdc Drivers\STM32F4xx_HAL_Driver\Src\stm32f4xx_hal_tim.o
 .text.HAL_TIM_PWM_Stop_IT
                0x00000000      0x11c Drivers\STM32F4xx_HAL_Driver\Src\stm32f4xx_hal_tim.o
 .text.HAL_TIM_PWM_Start_DMA
                0x00000000      0x1ac Drivers\STM32F4xx_HAL_Driver\Src\stm32f4xx_hal_tim.o
 .text.HAL_TIM_PWM_Stop_DMA
                0x00000000      0x124 Drivers\STM32F4xx_HAL_Driver\Src\stm32f4xx_hal_tim.o
 .text.HAL_TIM_IC_Init
                0x00000000       0x56 Drivers\STM32F4xx_HAL_Driver\Src\stm32f4xx_hal_tim.o
 .text.HAL_TIM_IC_DeInit
                0x00000000       0x60 Drivers\STM32F4xx_HAL_Driver\Src\stm32f4xx_hal_tim.o
 .text.HAL_TIM_IC_MspInit
                0x00000000       0x14 Drivers\STM32F4xx_HAL_Driver\Src\stm32f4xx_hal_tim.o
 .text.HAL_TIM_IC_MspDeInit
                0x00000000       0x14 Drivers\STM32F4xx_HAL_Driver\Src\stm32f4xx_hal_tim.o
 .text.HAL_TIM_IC_Start
                0x00000000       0x32 Drivers\STM32F4xx_HAL_Driver\Src\stm32f4xx_hal_tim.o
 .text.HAL_TIM_IC_Stop
                0x00000000       0x52 Drivers\STM32F4xx_HAL_Driver\Src\stm32f4xx_hal_tim.o
 .text.HAL_TIM_IC_Start_IT
                0x00000000       0xc0 Drivers\STM32F4xx_HAL_Driver\Src\stm32f4xx_hal_tim.o
 .text.HAL_TIM_IC_Stop_IT
                0x00000000       0xe0 Drivers\STM32F4xx_HAL_Driver\Src\stm32f4xx_hal_tim.o
 .text.HAL_TIM_IC_Start_DMA
                0x00000000      0x190 Drivers\STM32F4xx_HAL_Driver\Src\stm32f4xx_hal_tim.o
 .text.HAL_TIM_IC_Stop_DMA
                0x00000000       0xe8 Drivers\STM32F4xx_HAL_Driver\Src\stm32f4xx_hal_tim.o
 .text.HAL_TIM_OnePulse_Init
                0x00000000       0x78 Drivers\STM32F4xx_HAL_Driver\Src\stm32f4xx_hal_tim.o
 .text.HAL_TIM_OnePulse_DeInit
                0x00000000       0x60 Drivers\STM32F4xx_HAL_Driver\Src\stm32f4xx_hal_tim.o
 .text.HAL_TIM_OnePulse_MspInit
                0x00000000       0x14 Drivers\STM32F4xx_HAL_Driver\Src\stm32f4xx_hal_tim.o
 .text.HAL_TIM_OnePulse_MspDeInit
                0x00000000       0x14 Drivers\STM32F4xx_HAL_Driver\Src\stm32f4xx_hal_tim.o
 .text.HAL_TIM_OnePulse_Start
                0x00000000       0x50 Drivers\STM32F4xx_HAL_Driver\Src\stm32f4xx_hal_tim.o
 .text.HAL_TIM_OnePulse_Stop
                0x00000000       0xa0 Drivers\STM32F4xx_HAL_Driver\Src\stm32f4xx_hal_tim.o
 .text.HAL_TIM_OnePulse_Start_IT
                0x00000000       0x70 Drivers\STM32F4xx_HAL_Driver\Src\stm32f4xx_hal_tim.o
 .text.HAL_TIM_OnePulse_Stop_IT
                0x00000000       0xc0 Drivers\STM32F4xx_HAL_Driver\Src\stm32f4xx_hal_tim.o
 .text.HAL_TIM_Encoder_DeInit
                0x00000000       0x60 Drivers\STM32F4xx_HAL_Driver\Src\stm32f4xx_hal_tim.o
 .text.HAL_TIM_Encoder_MspInit
                0x00000000       0x14 Drivers\STM32F4xx_HAL_Driver\Src\stm32f4xx_hal_tim.o
 .text.HAL_TIM_Encoder_MspDeInit
                0x00000000       0x14 Drivers\STM32F4xx_HAL_Driver\Src\stm32f4xx_hal_tim.o
 .text.HAL_TIM_Encoder_Stop
                0x00000000       0x8e Drivers\STM32F4xx_HAL_Driver\Src\stm32f4xx_hal_tim.o
 .text.HAL_TIM_Encoder_Start_IT
                0x00000000       0xae Drivers\STM32F4xx_HAL_Driver\Src\stm32f4xx_hal_tim.o
 .text.HAL_TIM_Encoder_Stop_IT
                0x00000000       0xd4 Drivers\STM32F4xx_HAL_Driver\Src\stm32f4xx_hal_tim.o
 .text.HAL_TIM_Encoder_Start_DMA
                0x00000000      0x1a8 Drivers\STM32F4xx_HAL_Driver\Src\stm32f4xx_hal_tim.o
 .text.HAL_TIM_Encoder_Stop_DMA
                0x00000000       0xd4 Drivers\STM32F4xx_HAL_Driver\Src\stm32f4xx_hal_tim.o
 .text.HAL_TIM_OC_ConfigChannel
                0x00000000       0xc0 Drivers\STM32F4xx_HAL_Driver\Src\stm32f4xx_hal_tim.o
 .text.HAL_TIM_IC_ConfigChannel
                0x00000000      0x138 Drivers\STM32F4xx_HAL_Driver\Src\stm32f4xx_hal_tim.o
 .text.HAL_TIM_OnePulse_ConfigChannel
                0x00000000      0x180 Drivers\STM32F4xx_HAL_Driver\Src\stm32f4xx_hal_tim.o
 .text.HAL_TIM_DMABurst_WriteStart
                0x00000000      0x1e4 Drivers\STM32F4xx_HAL_Driver\Src\stm32f4xx_hal_tim.o
 .text.HAL_TIM_DMABurst_WriteStop
                0x00000000       0xb0 Drivers\STM32F4xx_HAL_Driver\Src\stm32f4xx_hal_tim.o
 .text.HAL_TIM_DMABurst_ReadStart
                0x00000000      0x1e4 Drivers\STM32F4xx_HAL_Driver\Src\stm32f4xx_hal_tim.o
 .text.HAL_TIM_DMABurst_ReadStop
                0x00000000       0xb0 Drivers\STM32F4xx_HAL_Driver\Src\stm32f4xx_hal_tim.o
 .text.HAL_TIM_GenerateEvent
                0x00000000       0x4e Drivers\STM32F4xx_HAL_Driver\Src\stm32f4xx_hal_tim.o
 .text.HAL_TIM_ConfigOCrefClear
                0x00000000      0x154 Drivers\STM32F4xx_HAL_Driver\Src\stm32f4xx_hal_tim.o
 .text.HAL_TIM_ConfigClockSource
                0x00000000      0x1b6 Drivers\STM32F4xx_HAL_Driver\Src\stm32f4xx_hal_tim.o
 .text.HAL_TIM_ConfigTI1Input
                0x00000000       0x3c Drivers\STM32F4xx_HAL_Driver\Src\stm32f4xx_hal_tim.o
 .text.HAL_TIM_SlaveConfigSynchronization
                0x00000000       0x6a Drivers\STM32F4xx_HAL_Driver\Src\stm32f4xx_hal_tim.o
 .text.HAL_TIM_SlaveConfigSynchronization_IT
                0x00000000       0x6a Drivers\STM32F4xx_HAL_Driver\Src\stm32f4xx_hal_tim.o
 .text.HAL_TIM_ReadCapturedValue
                0x00000000       0xa4 Drivers\STM32F4xx_HAL_Driver\Src\stm32f4xx_hal_tim.o
 .text.HAL_TIM_PeriodElapsedCallback
                0x00000000       0x14 Drivers\STM32F4xx_HAL_Driver\Src\stm32f4xx_hal_tim.o
 .text.HAL_TIM_ErrorCallback
                0x00000000       0x14 Drivers\STM32F4xx_HAL_Driver\Src\stm32f4xx_hal_tim.o
 .text.HAL_TIM_Base_GetState
                0x00000000       0x1c Drivers\STM32F4xx_HAL_Driver\Src\stm32f4xx_hal_tim.o
 .text.HAL_TIM_OC_GetState
                0x00000000       0x1c Drivers\STM32F4xx_HAL_Driver\Src\stm32f4xx_hal_tim.o
 .text.HAL_TIM_PWM_GetState
                0x00000000       0x1c Drivers\STM32F4xx_HAL_Driver\Src\stm32f4xx_hal_tim.o
 .text.HAL_TIM_IC_GetState
                0x00000000       0x1c Drivers\STM32F4xx_HAL_Driver\Src\stm32f4xx_hal_tim.o
 .text.HAL_TIM_OnePulse_GetState
                0x00000000       0x1c Drivers\STM32F4xx_HAL_Driver\Src\stm32f4xx_hal_tim.o
 .text.HAL_TIM_Encoder_GetState
                0x00000000       0x1c Drivers\STM32F4xx_HAL_Driver\Src\stm32f4xx_hal_tim.o
 .text.TIM_TI1_SetConfig
                0x00000000       0xe0 Drivers\STM32F4xx_HAL_Driver\Src\stm32f4xx_hal_tim.o
 .text.TIM_DMADelayPulseCplt
                0x00000000       0x70 Drivers\STM32F4xx_HAL_Driver\Src\stm32f4xx_hal_tim.o
 .text.TIM_DMAError
                0x00000000       0x24 Drivers\STM32F4xx_HAL_Driver\Src\stm32f4xx_hal_tim.o
 .text.TIM_DMACaptureCplt
                0x00000000       0x70 Drivers\STM32F4xx_HAL_Driver\Src\stm32f4xx_hal_tim.o
 .text.TIM_DMAPeriodElapsedCplt
                0x00000000       0x24 Drivers\STM32F4xx_HAL_Driver\Src\stm32f4xx_hal_tim.o
 .text.TIM_DMATriggerCplt
                0x00000000       0x24 Drivers\STM32F4xx_HAL_Driver\Src\stm32f4xx_hal_tim.o
 .text.TIM_SlaveTimer_SetConfig
                0x00000000      0x116 Drivers\STM32F4xx_HAL_Driver\Src\stm32f4xx_hal_tim.o
 .text.TIM_TI1_ConfigInputStage
                0x00000000       0x66 Drivers\STM32F4xx_HAL_Driver\Src\stm32f4xx_hal_tim.o
 .text.TIM_TI2_SetConfig
                0x00000000       0x82 Drivers\STM32F4xx_HAL_Driver\Src\stm32f4xx_hal_tim.o
 .text.TIM_TI2_ConfigInputStage
                0x00000000       0x68 Drivers\STM32F4xx_HAL_Driver\Src\stm32f4xx_hal_tim.o
 .text.TIM_TI3_SetConfig
                0x00000000       0x80 Drivers\STM32F4xx_HAL_Driver\Src\stm32f4xx_hal_tim.o
 .text.TIM_TI4_SetConfig
                0x00000000       0x82 Drivers\STM32F4xx_HAL_Driver\Src\stm32f4xx_hal_tim.o
 .text.TIM_ITRx_SetConfig
                0x00000000       0x40 Drivers\STM32F4xx_HAL_Driver\Src\stm32f4xx_hal_tim.o
 .text.TIM_ETR_SetConfig
                0x00000000       0x44 Drivers\STM32F4xx_HAL_Driver\Src\stm32f4xx_hal_tim.o
 .text          0x00000000        0x0 Drivers\STM32F4xx_HAL_Driver\Src\stm32f4xx_hal_tim_ex.o
 .data          0x00000000        0x0 Drivers\STM32F4xx_HAL_Driver\Src\stm32f4xx_hal_tim_ex.o
 .bss           0x00000000        0x0 Drivers\STM32F4xx_HAL_Driver\Src\stm32f4xx_hal_tim_ex.o
 .text.HAL_TIMEx_HallSensor_Init
                0x00000000      0x116 Drivers\STM32F4xx_HAL_Driver\Src\stm32f4xx_hal_tim_ex.o
 .text.HAL_TIMEx_HallSensor_DeInit
                0x00000000       0x60 Drivers\STM32F4xx_HAL_Driver\Src\stm32f4xx_hal_tim_ex.o
 .text.HAL_TIMEx_HallSensor_MspInit
                0x00000000       0x14 Drivers\STM32F4xx_HAL_Driver\Src\stm32f4xx_hal_tim_ex.o
 .text.HAL_TIMEx_HallSensor_MspDeInit
                0x00000000       0x14 Drivers\STM32F4xx_HAL_Driver\Src\stm32f4xx_hal_tim_ex.o
 .text.HAL_TIMEx_HallSensor_Start
                0x00000000       0x30 Drivers\STM32F4xx_HAL_Driver\Src\stm32f4xx_hal_tim_ex.o
 .text.HAL_TIMEx_HallSensor_Stop
                0x00000000       0x50 Drivers\STM32F4xx_HAL_Driver\Src\stm32f4xx_hal_tim_ex.o
 .text.HAL_TIMEx_HallSensor_Start_IT
                0x00000000       0x40 Drivers\STM32F4xx_HAL_Driver\Src\stm32f4xx_hal_tim_ex.o
 .text.HAL_TIMEx_HallSensor_Stop_IT
                0x00000000       0x60 Drivers\STM32F4xx_HAL_Driver\Src\stm32f4xx_hal_tim_ex.o
 .text.HAL_TIMEx_HallSensor_Start_DMA
                0x00000000       0xa8 Drivers\STM32F4xx_HAL_Driver\Src\stm32f4xx_hal_tim_ex.o
 .text.HAL_TIMEx_HallSensor_Stop_DMA
                0x00000000       0x60 Drivers\STM32F4xx_HAL_Driver\Src\stm32f4xx_hal_tim_ex.o
 .text.HAL_TIMEx_OCN_Start
                0x00000000       0x42 Drivers\STM32F4xx_HAL_Driver\Src\stm32f4xx_hal_tim_ex.o
 .text.HAL_TIMEx_OCN_Stop
                0x00000000       0x82 Drivers\STM32F4xx_HAL_Driver\Src\stm32f4xx_hal_tim_ex.o
 .text.HAL_TIMEx_OCN_Start_IT
                0x00000000       0xe0 Drivers\STM32F4xx_HAL_Driver\Src\stm32f4xx_hal_tim_ex.o
 .text.HAL_TIMEx_OCN_Stop_IT
                0x00000000      0x130 Drivers\STM32F4xx_HAL_Driver\Src\stm32f4xx_hal_tim_ex.o
 .text.HAL_TIMEx_OCN_Start_DMA
                0x00000000      0x1a0 Drivers\STM32F4xx_HAL_Driver\Src\stm32f4xx_hal_tim_ex.o
 .text.HAL_TIMEx_OCN_Stop_DMA
                0x00000000      0x118 Drivers\STM32F4xx_HAL_Driver\Src\stm32f4xx_hal_tim_ex.o
 .text.HAL_TIMEx_PWMN_Start
                0x00000000       0x42 Drivers\STM32F4xx_HAL_Driver\Src\stm32f4xx_hal_tim_ex.o
 .text.HAL_TIMEx_PWMN_Stop
                0x00000000       0x82 Drivers\STM32F4xx_HAL_Driver\Src\stm32f4xx_hal_tim_ex.o
 .text.HAL_TIMEx_PWMN_Start_IT
                0x00000000       0xe0 Drivers\STM32F4xx_HAL_Driver\Src\stm32f4xx_hal_tim_ex.o
 .text.HAL_TIMEx_PWMN_Stop_IT
                0x00000000      0x130 Drivers\STM32F4xx_HAL_Driver\Src\stm32f4xx_hal_tim_ex.o
 .text.HAL_TIMEx_PWMN_Start_DMA
                0x00000000      0x1a0 Drivers\STM32F4xx_HAL_Driver\Src\stm32f4xx_hal_tim_ex.o
 .text.HAL_TIMEx_PWMN_Stop_DMA
                0x00000000      0x118 Drivers\STM32F4xx_HAL_Driver\Src\stm32f4xx_hal_tim_ex.o
 .text.HAL_TIMEx_OnePulseN_Start
                0x00000000       0x32 Drivers\STM32F4xx_HAL_Driver\Src\stm32f4xx_hal_tim_ex.o
 .text.HAL_TIMEx_OnePulseN_Stop
                0x00000000       0x82 Drivers\STM32F4xx_HAL_Driver\Src\stm32f4xx_hal_tim_ex.o
 .text.HAL_TIMEx_OnePulseN_Start_IT
                0x00000000       0x52 Drivers\STM32F4xx_HAL_Driver\Src\stm32f4xx_hal_tim_ex.o
 .text.HAL_TIMEx_OnePulseN_Stop_IT
                0x00000000       0xa2 Drivers\STM32F4xx_HAL_Driver\Src\stm32f4xx_hal_tim_ex.o
 .text.HAL_TIMEx_ConfigCommutationEvent
                0x00000000       0xa0 Drivers\STM32F4xx_HAL_Driver\Src\stm32f4xx_hal_tim_ex.o
 .text.HAL_TIMEx_ConfigCommutationEvent_IT
                0x00000000       0xb0 Drivers\STM32F4xx_HAL_Driver\Src\stm32f4xx_hal_tim_ex.o
 .text.HAL_TIMEx_ConfigCommutationEvent_DMA
                0x00000000       0xc8 Drivers\STM32F4xx_HAL_Driver\Src\stm32f4xx_hal_tim_ex.o
 .text.HAL_TIMEx_ConfigBreakDeadTime
                0x00000000       0xb2 Drivers\STM32F4xx_HAL_Driver\Src\stm32f4xx_hal_tim_ex.o
 .text.HAL_TIMEx_RemapConfig
                0x00000000       0x46 Drivers\STM32F4xx_HAL_Driver\Src\stm32f4xx_hal_tim_ex.o
 .text.HAL_TIMEx_HallSensor_GetState
                0x00000000       0x1c Drivers\STM32F4xx_HAL_Driver\Src\stm32f4xx_hal_tim_ex.o
 .text.TIMEx_DMACommutationCplt
                0x00000000       0x24 Drivers\STM32F4xx_HAL_Driver\Src\stm32f4xx_hal_tim_ex.o
 .text.TIM_CCxNChannelCmd
                0x00000000       0x46 Drivers\STM32F4xx_HAL_Driver\Src\stm32f4xx_hal_tim_ex.o
 .text          0x00000000        0x0 Drivers\STM32F4xx_HAL_Driver\Src\stm32f4xx_hal_uart.o
 .data          0x00000000        0x0 Drivers\STM32F4xx_HAL_Driver\Src\stm32f4xx_hal_uart.o
 .bss           0x00000000        0x0 Drivers\STM32F4xx_HAL_Driver\Src\stm32f4xx_hal_uart.o
 .text.HAL_HalfDuplex_Init
                0x00000000       0xaa Drivers\STM32F4xx_HAL_Driver\Src\stm32f4xx_hal_uart.o
 .text.HAL_LIN_Init
                0x00000000       0xcc Drivers\STM32F4xx_HAL_Driver\Src\stm32f4xx_hal_uart.o
 .text.HAL_MultiProcessor_Init
                0x00000000       0xe0 Drivers\STM32F4xx_HAL_Driver\Src\stm32f4xx_hal_uart.o
 .text.HAL_UART_DeInit
                0x00000000       0x48 Drivers\STM32F4xx_HAL_Driver\Src\stm32f4xx_hal_uart.o
 .text.HAL_UART_MspInit
                0x00000000       0x14 Drivers\STM32F4xx_HAL_Driver\Src\stm32f4xx_hal_uart.o
 .text.HAL_UART_MspDeInit
                0x00000000       0x14 Drivers\STM32F4xx_HAL_Driver\Src\stm32f4xx_hal_uart.o
 .text.HAL_UART_Receive
                0x00000000      0x14c Drivers\STM32F4xx_HAL_Driver\Src\stm32f4xx_hal_uart.o
 .text.HAL_UART_Transmit_IT
                0x00000000       0x8a Drivers\STM32F4xx_HAL_Driver\Src\stm32f4xx_hal_uart.o
 .text.HAL_UART_Receive_IT
                0x00000000       0x9a Drivers\STM32F4xx_HAL_Driver\Src\stm32f4xx_hal_uart.o
 .text.HAL_UART_Transmit_DMA
                0x00000000       0xd8 Drivers\STM32F4xx_HAL_Driver\Src\stm32f4xx_hal_uart.o
 .text.HAL_UART_Receive_DMA
                0x00000000      0x100 Drivers\STM32F4xx_HAL_Driver\Src\stm32f4xx_hal_uart.o
 .text.HAL_UART_DMAPause
                0x00000000       0xc8 Drivers\STM32F4xx_HAL_Driver\Src\stm32f4xx_hal_uart.o
 .text.HAL_UART_DMAResume
                0x00000000       0xa2 Drivers\STM32F4xx_HAL_Driver\Src\stm32f4xx_hal_uart.o
 .text.HAL_UART_DMAStop
                0x00000000       0xb6 Drivers\STM32F4xx_HAL_Driver\Src\stm32f4xx_hal_uart.o
 .text.HAL_UART_Abort
                0x00000000       0xc4 Drivers\STM32F4xx_HAL_Driver\Src\stm32f4xx_hal_uart.o
 .text.HAL_UART_AbortTransmit
                0x00000000       0x68 Drivers\STM32F4xx_HAL_Driver\Src\stm32f4xx_hal_uart.o
 .text.HAL_UART_AbortReceive
                0x00000000       0x78 Drivers\STM32F4xx_HAL_Driver\Src\stm32f4xx_hal_uart.o
 .text.HAL_UART_Abort_IT
                0x00000000      0x148 Drivers\STM32F4xx_HAL_Driver\Src\stm32f4xx_hal_uart.o
 .text.HAL_UART_AbortTransmit_IT
                0x00000000       0xa0 Drivers\STM32F4xx_HAL_Driver\Src\stm32f4xx_hal_uart.o
 .text.HAL_UART_AbortReceive_IT
                0x00000000       0xb0 Drivers\STM32F4xx_HAL_Driver\Src\stm32f4xx_hal_uart.o
 .text.HAL_UART_IRQHandler
                0x00000000      0x1f8 Drivers\STM32F4xx_HAL_Driver\Src\stm32f4xx_hal_uart.o
 .text.HAL_UART_TxCpltCallback
                0x00000000       0x14 Drivers\STM32F4xx_HAL_Driver\Src\stm32f4xx_hal_uart.o
 .text.HAL_UART_TxHalfCpltCallback
                0x00000000       0x14 Drivers\STM32F4xx_HAL_Driver\Src\stm32f4xx_hal_uart.o
 .text.HAL_UART_RxCpltCallback
                0x00000000       0x14 Drivers\STM32F4xx_HAL_Driver\Src\stm32f4xx_hal_uart.o
 .text.HAL_UART_RxHalfCpltCallback
                0x00000000       0x14 Drivers\STM32F4xx_HAL_Driver\Src\stm32f4xx_hal_uart.o
 .text.HAL_UART_ErrorCallback
                0x00000000       0x14 Drivers\STM32F4xx_HAL_Driver\Src\stm32f4xx_hal_uart.o
 .text.HAL_UART_AbortCpltCallback
                0x00000000       0x14 Drivers\STM32F4xx_HAL_Driver\Src\stm32f4xx_hal_uart.o
 .text.HAL_UART_AbortTransmitCpltCallback
                0x00000000       0x14 Drivers\STM32F4xx_HAL_Driver\Src\stm32f4xx_hal_uart.o
 .text.HAL_UART_AbortReceiveCpltCallback
                0x00000000       0x14 Drivers\STM32F4xx_HAL_Driver\Src\stm32f4xx_hal_uart.o
 .text.HAL_LIN_SendBreak
                0x00000000       0x54 Drivers\STM32F4xx_HAL_Driver\Src\stm32f4xx_hal_uart.o
 .text.HAL_MultiProcessor_EnterMuteMode
                0x00000000       0x54 Drivers\STM32F4xx_HAL_Driver\Src\stm32f4xx_hal_uart.o
 .text.HAL_MultiProcessor_ExitMuteMode
                0x00000000       0x54 Drivers\STM32F4xx_HAL_Driver\Src\stm32f4xx_hal_uart.o
 .text.HAL_HalfDuplex_EnableTransmitter
                0x00000000       0x68 Drivers\STM32F4xx_HAL_Driver\Src\stm32f4xx_hal_uart.o
 .text.HAL_HalfDuplex_EnableReceiver
                0x00000000       0x68 Drivers\STM32F4xx_HAL_Driver\Src\stm32f4xx_hal_uart.o
 .text.HAL_UART_GetState
                0x00000000       0x3c Drivers\STM32F4xx_HAL_Driver\Src\stm32f4xx_hal_uart.o
 .text.HAL_UART_GetError
                0x00000000       0x18 Drivers\STM32F4xx_HAL_Driver\Src\stm32f4xx_hal_uart.o
 .text.UART_DMATransmitCplt
                0x00000000       0x52 Drivers\STM32F4xx_HAL_Driver\Src\stm32f4xx_hal_uart.o
 .text.UART_DMATxHalfCplt
                0x00000000       0x1c Drivers\STM32F4xx_HAL_Driver\Src\stm32f4xx_hal_uart.o
 .text.UART_DMAReceiveCplt
                0x00000000       0x68 Drivers\STM32F4xx_HAL_Driver\Src\stm32f4xx_hal_uart.o
 .text.UART_DMARxHalfCplt
                0x00000000       0x1c Drivers\STM32F4xx_HAL_Driver\Src\stm32f4xx_hal_uart.o
 .text.UART_DMAError
                0x00000000       0x94 Drivers\STM32F4xx_HAL_Driver\Src\stm32f4xx_hal_uart.o
 .text.UART_EndTxTransfer
                0x00000000       0x2c Drivers\STM32F4xx_HAL_Driver\Src\stm32f4xx_hal_uart.o
 .text.UART_EndRxTransfer
                0x00000000       0x3c Drivers\STM32F4xx_HAL_Driver\Src\stm32f4xx_hal_uart.o
 .text.UART_DMAAbortOnError
                0x00000000       0x28 Drivers\STM32F4xx_HAL_Driver\Src\stm32f4xx_hal_uart.o
 .text.UART_DMATxAbortCallback
                0x00000000       0x5a Drivers\STM32F4xx_HAL_Driver\Src\stm32f4xx_hal_uart.o
 .text.UART_DMARxAbortCallback
                0x00000000       0x5a Drivers\STM32F4xx_HAL_Driver\Src\stm32f4xx_hal_uart.o
 .text.UART_DMATxOnlyAbortCallback
                0x00000000       0x2a Drivers\STM32F4xx_HAL_Driver\Src\stm32f4xx_hal_uart.o
 .text.UART_DMARxOnlyAbortCallback
                0x00000000       0x2a Drivers\STM32F4xx_HAL_Driver\Src\stm32f4xx_hal_uart.o
 .text.UART_Transmit_IT
                0x00000000       0xaa Drivers\STM32F4xx_HAL_Driver\Src\stm32f4xx_hal_uart.o
 .text.UART_EndTransmit_IT
                0x00000000       0x30 Drivers\STM32F4xx_HAL_Driver\Src\stm32f4xx_hal_uart.o
 .text.UART_Receive_IT
                0x00000000       0xf2 Drivers\STM32F4xx_HAL_Driver\Src\stm32f4xx_hal_uart.o
 .text          0x00000000        0x0 Middlewares\Third_Party\FreeRTOS\Source\CMSIS_RTOS\cmsis_os.o
 .data          0x00000000        0x0 Middlewares\Third_Party\FreeRTOS\Source\CMSIS_RTOS\cmsis_os.o
 .bss           0x00000000        0x0 Middlewares\Third_Party\FreeRTOS\Source\CMSIS_RTOS\cmsis_os.o
 .text.makeCmsisPriority
                0x00000000       0x2c Middlewares\Third_Party\FreeRTOS\Source\CMSIS_RTOS\cmsis_os.o
 .text.inHandlerMode
                0x00000000       0x24 Middlewares\Third_Party\FreeRTOS\Source\CMSIS_RTOS\cmsis_os.o
 .text.osKernelRunning
                0x00000000       0x18 Middlewares\Third_Party\FreeRTOS\Source\CMSIS_RTOS\cmsis_os.o
 .text.osKernelSysTick
                0x00000000       0x20 Middlewares\Third_Party\FreeRTOS\Source\CMSIS_RTOS\cmsis_os.o
 .text.osThreadGetId
                0x00000000        0xe Middlewares\Third_Party\FreeRTOS\Source\CMSIS_RTOS\cmsis_os.o
 .text.osThreadTerminate
                0x00000000       0x18 Middlewares\Third_Party\FreeRTOS\Source\CMSIS_RTOS\cmsis_os.o
 .text.osThreadYield
                0x00000000       0x24 Middlewares\Third_Party\FreeRTOS\Source\CMSIS_RTOS\cmsis_os.o
 .text.osThreadSetPriority
                0x00000000       0x2a Middlewares\Third_Party\FreeRTOS\Source\CMSIS_RTOS\cmsis_os.o
 .text.osThreadGetPriority
                0x00000000       0x3c Middlewares\Third_Party\FreeRTOS\Source\CMSIS_RTOS\cmsis_os.o
 .text.osTimerCreate
                0x00000000       0x1c Middlewares\Third_Party\FreeRTOS\Source\CMSIS_RTOS\cmsis_os.o
 .text.osTimerStart
                0x00000000       0x20 Middlewares\Third_Party\FreeRTOS\Source\CMSIS_RTOS\cmsis_os.o
 .text.osTimerStop
                0x00000000       0x1e Middlewares\Third_Party\FreeRTOS\Source\CMSIS_RTOS\cmsis_os.o
 .text.osTimerDelete
                0x00000000       0x1e Middlewares\Third_Party\FreeRTOS\Source\CMSIS_RTOS\cmsis_os.o
 .text.osSignalSet
                0x00000000       0x80 Middlewares\Third_Party\FreeRTOS\Source\CMSIS_RTOS\cmsis_os.o
 .text.osSignalWait
                0x00000000       0x98 Middlewares\Third_Party\FreeRTOS\Source\CMSIS_RTOS\cmsis_os.o
 .text.osMutexWait
                0x00000000       0xa0 Middlewares\Third_Party\FreeRTOS\Source\CMSIS_RTOS\cmsis_os.o
 .text.osMutexRelease
                0x00000000       0x6c Middlewares\Third_Party\FreeRTOS\Source\CMSIS_RTOS\cmsis_os.o
 .text.osMutexDelete
                0x00000000       0x26 Middlewares\Third_Party\FreeRTOS\Source\CMSIS_RTOS\cmsis_os.o
 .text.osSemaphoreCreate
                0x00000000       0x3c Middlewares\Third_Party\FreeRTOS\Source\CMSIS_RTOS\cmsis_os.o
 .text.osSemaphoreWait
                0x00000000       0xa0 Middlewares\Third_Party\FreeRTOS\Source\CMSIS_RTOS\cmsis_os.o
 .text.osSemaphoreRelease
                0x00000000       0x6c Middlewares\Third_Party\FreeRTOS\Source\CMSIS_RTOS\cmsis_os.o
 .text.osSemaphoreDelete
                0x00000000       0x26 Middlewares\Third_Party\FreeRTOS\Source\CMSIS_RTOS\cmsis_os.o
 .text.osPoolCreate
                0x00000000       0xba Middlewares\Third_Party\FreeRTOS\Source\CMSIS_RTOS\cmsis_os.o
 .text.osPoolAlloc
                0x00000000       0xc4 Middlewares\Third_Party\FreeRTOS\Source\CMSIS_RTOS\cmsis_os.o
 .text.osPoolCAlloc
                0x00000000       0x2a Middlewares\Third_Party\FreeRTOS\Source\CMSIS_RTOS\cmsis_os.o
 .text.osPoolFree
                0x00000000       0x82 Middlewares\Third_Party\FreeRTOS\Source\CMSIS_RTOS\cmsis_os.o
 .text.osMessageCreate
                0x00000000       0x24 Middlewares\Third_Party\FreeRTOS\Source\CMSIS_RTOS\cmsis_os.o
 .text.osMessagePut
                0x00000000       0x80 Middlewares\Third_Party\FreeRTOS\Source\CMSIS_RTOS\cmsis_os.o
 .text.osMessageGet
                0x00000000       0xe8 Middlewares\Third_Party\FreeRTOS\Source\CMSIS_RTOS\cmsis_os.o
 .text.osMailCreate
                0x00000000       0xb2 Middlewares\Third_Party\FreeRTOS\Source\CMSIS_RTOS\cmsis_os.o
 .text.osMailAlloc
                0x00000000       0x2a Middlewares\Third_Party\FreeRTOS\Source\CMSIS_RTOS\cmsis_os.o
 .text.osMailCAlloc
                0x00000000       0x46 Middlewares\Third_Party\FreeRTOS\Source\CMSIS_RTOS\cmsis_os.o
 .text.osMailPut
                0x00000000       0x7c Middlewares\Third_Party\FreeRTOS\Source\CMSIS_RTOS\cmsis_os.o
 .text.osMailGet
                0x00000000       0xe8 Middlewares\Third_Party\FreeRTOS\Source\CMSIS_RTOS\cmsis_os.o
 .text.osMailFree
                0x00000000       0x2a Middlewares\Third_Party\FreeRTOS\Source\CMSIS_RTOS\cmsis_os.o
 .text.osThreadSuspend
                0x00000000       0x18 Middlewares\Third_Party\FreeRTOS\Source\CMSIS_RTOS\cmsis_os.o
 .text.osThreadResume
                0x00000000       0x44 Middlewares\Third_Party\FreeRTOS\Source\CMSIS_RTOS\cmsis_os.o
 .text.osThreadSuspendAll
                0x00000000        0xe Middlewares\Third_Party\FreeRTOS\Source\CMSIS_RTOS\cmsis_os.o
 .text.osThreadResumeAll
                0x00000000       0x18 Middlewares\Third_Party\FreeRTOS\Source\CMSIS_RTOS\cmsis_os.o
 .text.osDelayUntil
                0x00000000       0x18 Middlewares\Third_Party\FreeRTOS\Source\CMSIS_RTOS\cmsis_os.o
 .text.osAbortDelay
                0x00000000       0x16 Middlewares\Third_Party\FreeRTOS\Source\CMSIS_RTOS\cmsis_os.o
 .text.osThreadList
                0x00000000       0x16 Middlewares\Third_Party\FreeRTOS\Source\CMSIS_RTOS\cmsis_os.o
 .text.osMessagePeek
                0x00000000       0x96 Middlewares\Third_Party\FreeRTOS\Source\CMSIS_RTOS\cmsis_os.o
 .text.osMessageWaiting
                0x00000000       0x2c Middlewares\Third_Party\FreeRTOS\Source\CMSIS_RTOS\cmsis_os.o
 .text.osMessageAvailableSpace
                0x00000000       0x18 Middlewares\Third_Party\FreeRTOS\Source\CMSIS_RTOS\cmsis_os.o
 .text.osMessageDelete
                0x00000000       0x26 Middlewares\Third_Party\FreeRTOS\Source\CMSIS_RTOS\cmsis_os.o
 .text.osRecursiveMutexCreate
                0x00000000       0x16 Middlewares\Third_Party\FreeRTOS\Source\CMSIS_RTOS\cmsis_os.o
 .text.osRecursiveMutexRelease
                0x00000000       0x16 Middlewares\Third_Party\FreeRTOS\Source\CMSIS_RTOS\cmsis_os.o
 .text.osRecursiveMutexWait
                0x00000000       0x18 Middlewares\Third_Party\FreeRTOS\Source\CMSIS_RTOS\cmsis_os.o
 .text.osSemaphoreGetCount
                0x00000000       0x18 Middlewares\Third_Party\FreeRTOS\Source\CMSIS_RTOS\cmsis_os.o
 .text          0x00000000        0x0 Middlewares\Third_Party\FreeRTOS\Source\croutine.o
 .data          0x00000000        0x0 Middlewares\Third_Party\FreeRTOS\Source\croutine.o
 .bss           0x00000000        0x0 Middlewares\Third_Party\FreeRTOS\Source\croutine.o
 .debug_info    0x00000000       0x9a Middlewares\Third_Party\FreeRTOS\Source\croutine.o
 .debug_abbrev  0x00000000       0x44 Middlewares\Third_Party\FreeRTOS\Source\croutine.o
 .debug_aranges
                0x00000000       0x18 Middlewares\Third_Party\FreeRTOS\Source\croutine.o
 .debug_line    0x00000000      0x11d Middlewares\Third_Party\FreeRTOS\Source\croutine.o
 .debug_str     0x00000000      0x215 Middlewares\Third_Party\FreeRTOS\Source\croutine.o
 .comment       0x00000000       0x7d Middlewares\Third_Party\FreeRTOS\Source\croutine.o
 .ARM.attributes
                0x00000000       0x39 Middlewares\Third_Party\FreeRTOS\Source\croutine.o
 .text          0x00000000        0x0 Middlewares\Third_Party\FreeRTOS\Source\event_groups.o
 .data          0x00000000        0x0 Middlewares\Third_Party\FreeRTOS\Source\event_groups.o
 .bss           0x00000000        0x0 Middlewares\Third_Party\FreeRTOS\Source\event_groups.o
 .text.xEventGroupCreate
                0x00000000       0x2e Middlewares\Third_Party\FreeRTOS\Source\event_groups.o
 .text.xEventGroupSync
                0x00000000      0x154 Middlewares\Third_Party\FreeRTOS\Source\event_groups.o
 .text.xEventGroupWaitBits
                0x00000000      0x190 Middlewares\Third_Party\FreeRTOS\Source\event_groups.o
 .text.xEventGroupClearBits
                0x00000000       0x6c Middlewares\Third_Party\FreeRTOS\Source\event_groups.o
 .text.xEventGroupGetBitsFromISR
                0x00000000       0x46 Middlewares\Third_Party\FreeRTOS\Source\event_groups.o
 .text.xEventGroupSetBits
                0x00000000      0x112 Middlewares\Third_Party\FreeRTOS\Source\event_groups.o
 .text.vEventGroupDelete
                0x00000000       0x60 Middlewares\Third_Party\FreeRTOS\Source\event_groups.o
 .text.vEventGroupSetBitsCallback
                0x00000000       0x1a Middlewares\Third_Party\FreeRTOS\Source\event_groups.o
 .text.vEventGroupClearBitsCallback
                0x00000000       0x1a Middlewares\Third_Party\FreeRTOS\Source\event_groups.o
 .text.prvTestWaitCondition
                0x00000000       0x44 Middlewares\Third_Party\FreeRTOS\Source\event_groups.o
 .debug_info    0x00000000     0x1094 Middlewares\Third_Party\FreeRTOS\Source\event_groups.o
 .debug_abbrev  0x00000000      0x2d0 Middlewares\Third_Party\FreeRTOS\Source\event_groups.o
 .debug_aranges
                0x00000000       0x68 Middlewares\Third_Party\FreeRTOS\Source\event_groups.o
 .debug_ranges  0x00000000       0x58 Middlewares\Third_Party\FreeRTOS\Source\event_groups.o
 .debug_line    0x00000000      0x56e Middlewares\Third_Party\FreeRTOS\Source\event_groups.o
 .debug_str     0x00000000      0x9fa Middlewares\Third_Party\FreeRTOS\Source\event_groups.o
 .comment       0x00000000       0x7d Middlewares\Third_Party\FreeRTOS\Source\event_groups.o
 .debug_frame   0x00000000      0x180 Middlewares\Third_Party\FreeRTOS\Source\event_groups.o
 .ARM.attributes
                0x00000000       0x39 Middlewares\Third_Party\FreeRTOS\Source\event_groups.o
 .text          0x00000000        0x0 Middlewares\Third_Party\FreeRTOS\Source\list.o
 .data          0x00000000        0x0 Middlewares\Third_Party\FreeRTOS\Source\list.o
 .bss           0x00000000        0x0 Middlewares\Third_Party\FreeRTOS\Source\list.o
 .text          0x00000000        0x0 Middlewares\Third_Party\FreeRTOS\Source\portable\GCC\ARM_CM4F\port.o
 .data          0x00000000        0x0 Middlewares\Third_Party\FreeRTOS\Source\portable\GCC\ARM_CM4F\port.o
 .bss           0x00000000        0x0 Middlewares\Third_Party\FreeRTOS\Source\portable\GCC\ARM_CM4F\port.o
 .rodata.pcInterruptPriorityRegisters
                0x00000000        0x4 Middlewares\Third_Party\FreeRTOS\Source\portable\GCC\ARM_CM4F\port.o
 .text.vPortEndScheduler
                0x00000000       0x34 Middlewares\Third_Party\FreeRTOS\Source\portable\GCC\ARM_CM4F\port.o
 .text          0x00000000        0x0 Middlewares\Third_Party\FreeRTOS\Source\portable\MemMang\heap_4.o
 .data          0x00000000        0x0 Middlewares\Third_Party\FreeRTOS\Source\portable\MemMang\heap_4.o
 .bss           0x00000000        0x0 Middlewares\Third_Party\FreeRTOS\Source\portable\MemMang\heap_4.o
 .rodata.xHeapStructSize
                0x00000000        0x4 Middlewares\Third_Party\FreeRTOS\Source\portable\MemMang\heap_4.o
 .text.xPortGetFreeHeapSize
                0x00000000       0x18 Middlewares\Third_Party\FreeRTOS\Source\portable\MemMang\heap_4.o
 .text.xPortGetMinimumEverFreeHeapSize
                0x00000000       0x18 Middlewares\Third_Party\FreeRTOS\Source\portable\MemMang\heap_4.o
 .text.vPortInitialiseBlocks
                0x00000000        0xe Middlewares\Third_Party\FreeRTOS\Source\portable\MemMang\heap_4.o
 .text          0x00000000        0x0 Middlewares\Third_Party\FreeRTOS\Source\queue.o
 .data          0x00000000        0x0 Middlewares\Third_Party\FreeRTOS\Source\queue.o
 .bss           0x00000000        0x0 Middlewares\Third_Party\FreeRTOS\Source\queue.o
 .text.xQueueGenericSendFromISR
                0x00000000      0x128 Middlewares\Third_Party\FreeRTOS\Source\queue.o
 .text.xQueueGiveFromISR
                0x00000000      0x112 Middlewares\Third_Party\FreeRTOS\Source\queue.o
 .text.xQueueReceiveFromISR
                0x00000000       0xfa Middlewares\Third_Party\FreeRTOS\Source\queue.o
 .text.xQueuePeekFromISR
                0x00000000       0xca Middlewares\Third_Party\FreeRTOS\Source\queue.o
 .text.uxQueueMessagesWaiting
                0x00000000       0x3a Middlewares\Third_Party\FreeRTOS\Source\queue.o
 .text.uxQueueSpacesAvailable
                0x00000000       0x44 Middlewares\Third_Party\FreeRTOS\Source\queue.o
 .text.uxQueueMessagesWaitingFromISR
                0x00000000       0x36 Middlewares\Third_Party\FreeRTOS\Source\queue.o
 .text.vQueueDelete
                0x00000000       0x3a Middlewares\Third_Party\FreeRTOS\Source\queue.o
 .text.xQueueIsQueueEmptyFromISR
                0x00000000       0x42 Middlewares\Third_Party\FreeRTOS\Source\queue.o
 .text.xQueueIsQueueFullFromISR
                0x00000000       0x46 Middlewares\Third_Party\FreeRTOS\Source\queue.o
 .text.vQueueAddToRegistry
                0x00000000       0x50 Middlewares\Third_Party\FreeRTOS\Source\queue.o
 .text.pcQueueGetName
                0x00000000       0x4c Middlewares\Third_Party\FreeRTOS\Source\queue.o
 .text.vQueueUnregisterQueue
                0x00000000       0x54 Middlewares\Third_Party\FreeRTOS\Source\queue.o
 COMMON         0x00000000       0x40 Middlewares\Third_Party\FreeRTOS\Source\queue.o
 .text          0x00000000        0x0 Middlewares\Third_Party\FreeRTOS\Source\tasks.o
 .data          0x00000000        0x0 Middlewares\Third_Party\FreeRTOS\Source\tasks.o
 .bss           0x00000000        0x0 Middlewares\Third_Party\FreeRTOS\Source\tasks.o
 .text.vTaskDelete
                0x00000000      0x11c Middlewares\Third_Party\FreeRTOS\Source\tasks.o
 .text.uxTaskPriorityGet
                0x00000000       0x34 Middlewares\Third_Party\FreeRTOS\Source\tasks.o
 .text.uxTaskPriorityGetFromISR
                0x00000000       0x58 Middlewares\Third_Party\FreeRTOS\Source\tasks.o
 .text.vTaskPrioritySet
                0x00000000      0x15c Middlewares\Third_Party\FreeRTOS\Source\tasks.o
 .text.vTaskResume
                0x00000000       0xb8 Middlewares\Third_Party\FreeRTOS\Source\tasks.o
 .text.vTaskEndScheduler
                0x00000000       0x30 Middlewares\Third_Party\FreeRTOS\Source\tasks.o
 .text.xTaskGetTickCount
                0x00000000       0x20 Middlewares\Third_Party\FreeRTOS\Source\tasks.o
 .text.xTaskGetTickCountFromISR
                0x00000000       0x24 Middlewares\Third_Party\FreeRTOS\Source\tasks.o
 .text.uxTaskGetNumberOfTasks
                0x00000000       0x18 Middlewares\Third_Party\FreeRTOS\Source\tasks.o
 .text.pcTaskGetName
                0x00000000       0x48 Middlewares\Third_Party\FreeRTOS\Source\tasks.o
 .text.vTaskPlaceOnUnorderedEventList
                0x00000000       0x74 Middlewares\Third_Party\FreeRTOS\Source\tasks.o
 .text.xTaskRemoveFromUnorderedEventList
                0x00000000       0xcc Middlewares\Third_Party\FreeRTOS\Source\tasks.o
 .text.xTaskGetCurrentTaskHandle
                0x00000000       0x20 Middlewares\Third_Party\FreeRTOS\Source\tasks.o
 .text.uxTaskResetEventItemValue
                0x00000000       0x30 Middlewares\Third_Party\FreeRTOS\Source\tasks.o
 .text.ulTaskNotifyTake
                0x00000000       0x90 Middlewares\Third_Party\FreeRTOS\Source\tasks.o
 .text.xTaskNotifyWait
                0x00000000       0xb4 Middlewares\Third_Party\FreeRTOS\Source\tasks.o
 .text.xTaskGenericNotify
                0x00000000      0x140 Middlewares\Third_Party\FreeRTOS\Source\tasks.o
 .text.xTaskGenericNotifyFromISR
                0x00000000      0x18c Middlewares\Third_Party\FreeRTOS\Source\tasks.o
 .text.vTaskNotifyGiveFromISR
                0x00000000      0x120 Middlewares\Third_Party\FreeRTOS\Source\tasks.o
 .text.xTaskNotifyStateClear
                0x00000000       0x4c Middlewares\Third_Party\FreeRTOS\Source\tasks.o
 .text          0x00000000        0x0 Middlewares\Third_Party\FreeRTOS\Source\timers.o
 .data          0x00000000        0x0 Middlewares\Third_Party\FreeRTOS\Source\timers.o
 .bss           0x00000000        0x0 Middlewares\Third_Party\FreeRTOS\Source\timers.o
 .debug_info    0x00000000      0x8b0 Middlewares\Third_Party\FreeRTOS\Source\timers.o
 .debug_abbrev  0x00000000      0x155 Middlewares\Third_Party\FreeRTOS\Source\timers.o
 .debug_aranges
                0x00000000       0x18 Middlewares\Third_Party\FreeRTOS\Source\timers.o
 .debug_line    0x00000000      0x21c Middlewares\Third_Party\FreeRTOS\Source\timers.o
 .debug_str     0x00000000      0x639 Middlewares\Third_Party\FreeRTOS\Source\timers.o
 .comment       0x00000000       0x7d Middlewares\Third_Party\FreeRTOS\Source\timers.o
 .ARM.attributes
                0x00000000       0x39 Middlewares\Third_Party\FreeRTOS\Source\timers.o
 .text          0x00000000        0x0 Src\freertos.o
 .data          0x00000000        0x0 Src\freertos.o
 .bss           0x00000000        0x0 Src\freertos.o
 .debug_info    0x00000000       0x9a Src\freertos.o
 .debug_abbrev  0x00000000       0x44 Src\freertos.o
 .debug_aranges
                0x00000000       0x18 Src\freertos.o
 .debug_line    0x00000000      0x11d Src\freertos.o
 .debug_str     0x00000000      0x1f1 Src\freertos.o
 .comment       0x00000000       0x7d Src\freertos.o
 .ARM.attributes
                0x00000000       0x39 Src\freertos.o
 .text          0x00000000        0x0 Src\main.o
 .data          0x00000000        0x0 Src\main.o
 .bss           0x00000000        0x0 Src\main.o
 .data.Dev      0x00000000        0x4 Src\main.o
 .data.LASER_REAR_RIGHT_DEV
                0x00000000        0x4 Src\main.o
 .data.LASER_LEFT_FRONT_DEV
                0x00000000        0x4 Src\main.o
 .data.LASER_LEFT_REAR_DEV
                0x00000000        0x4 Src\main.o
 .data.LASER_RIGHT_FRONT_DEV
                0x00000000        0x4 Src\main.o
 .data.LASER_RIGHT_REAR_DEV
                0x00000000        0x4 Src\main.o
 .data.RightMotorPIDHandle
                0x00000000        0x4 Src\main.o
 .bss.state_initialised
                0x00000000        0x1 Src\main.o
 .bss.state_at_centre
                0x00000000        0x1 Src\main.o
 .bss.state_edge_crossed
                0x00000000        0x1 Src\main.o
 .bss.state_opponent_lost
                0x00000000        0x1 Src\main.o
 .bss.state_tracking_opponent
                0x00000000        0x1 Src\main.o
 .text          0x00000000        0x0 Src\stm32f4xx_hal_msp.o
 .data          0x00000000        0x0 Src\stm32f4xx_hal_msp.o
 .bss           0x00000000        0x0 Src\stm32f4xx_hal_msp.o
 .text.HAL_I2C_MspDeInit
                0x00000000       0x3c Src\stm32f4xx_hal_msp.o
 .text.HAL_TIM_Encoder_MspDeInit
                0x00000000       0x5c Src\stm32f4xx_hal_msp.o
 .text.HAL_TIM_PWM_MspDeInit
                0x00000000       0x34 Src\stm32f4xx_hal_msp.o
 .text.HAL_UART_MspDeInit
                0x00000000       0x3c Src\stm32f4xx_hal_msp.o
 .text          0x00000000        0x0 Src\stm32f4xx_hal_timebase_TIM.o
 .data          0x00000000        0x0 Src\stm32f4xx_hal_timebase_TIM.o
 .bss           0x00000000        0x0 Src\stm32f4xx_hal_timebase_TIM.o
 .bss.uwIncrementState
                0x00000000        0x4 Src\stm32f4xx_hal_timebase_TIM.o
 .text.HAL_SuspendTick
                0x00000000       0x24 Src\stm32f4xx_hal_timebase_TIM.o
 .text.HAL_ResumeTick
                0x00000000       0x24 Src\stm32f4xx_hal_timebase_TIM.o
 .text          0x00000000        0x0 Src\stm32f4xx_it.o
 .data          0x00000000        0x0 Src\stm32f4xx_it.o
 .bss           0x00000000        0x0 Src\stm32f4xx_it.o
 .text          0x00000000        0x0 Src\sumobot_functions.o
 .data          0x00000000        0x0 Src\sumobot_functions.o
 .bss           0x00000000        0x0 Src\sumobot_functions.o
 .text.PIDController
                0x00000000      0x140 Src\sumobot_functions.o
 .text.EncoderController
                0x00000000       0x4e Src\sumobot_functions.o
 .debug_info    0x00000000      0xf7f Src\sumobot_functions.o
 .debug_abbrev  0x00000000      0x1e4 Src\sumobot_functions.o
 .debug_aranges
                0x00000000       0x28 Src\sumobot_functions.o
 .debug_ranges  0x00000000       0x18 Src\sumobot_functions.o
 .debug_line    0x00000000      0x2ed Src\sumobot_functions.o
 .debug_str     0x00000000      0xb7c Src\sumobot_functions.o
 .comment       0x00000000       0x7d Src\sumobot_functions.o
 .debug_frame   0x00000000       0x5c Src\sumobot_functions.o
 .ARM.attributes
                0x00000000       0x39 Src\sumobot_functions.o
 .text          0x00000000        0x0 Src\sumobot_state_machine.o
 .data          0x00000000        0x0 Src\sumobot_state_machine.o
 .bss           0x00000000        0x0 Src\sumobot_state_machine.o
 .debug_line    0x00000000        0x0 Src\sumobot_state_machine.o
 .debug_str     0x00000000      0x13c Src\sumobot_state_machine.o
 .comment       0x00000000       0x7d Src\sumobot_state_machine.o
 .ARM.attributes
                0x00000000       0x39 Src\sumobot_state_machine.o
 .text          0x00000000        0x0 Src\system_stm32f4xx.o
 .data          0x00000000        0x0 Src\system_stm32f4xx.o
 .bss           0x00000000        0x0 Src\system_stm32f4xx.o
 .text.SystemCoreClockUpdate
                0x00000000       0xf4 Src\system_stm32f4xx.o
 .text          0x00000000       0x14 startup\startup_stm32f401xe.o
 .data          0x00000000        0x0 startup\startup_stm32f401xe.o
 .bss           0x00000000        0x0 startup\startup_stm32f401xe.o
 .text          0x00000000        0x0 c:/program files (x86)/atollic/truestudio for stm32 9.0.1/armtools/bin/../lib/gcc/arm-atollic-eabi/6.3.1/../../../../arm-atollic-eabi/lib/armv7e-m/fpu\libc_nano.a(lib_a-init.o)
 .data          0x00000000        0x0 c:/program files (x86)/atollic/truestudio for stm32 9.0.1/armtools/bin/../lib/gcc/arm-atollic-eabi/6.3.1/../../../../arm-atollic-eabi/lib/armv7e-m/fpu\libc_nano.a(lib_a-init.o)
 .bss           0x00000000        0x0 c:/program files (x86)/atollic/truestudio for stm32 9.0.1/armtools/bin/../lib/gcc/arm-atollic-eabi/6.3.1/../../../../arm-atollic-eabi/lib/armv7e-m/fpu\libc_nano.a(lib_a-init.o)
 .text          0x00000000        0x0 c:/program files (x86)/atollic/truestudio for stm32 9.0.1/armtools/bin/../lib/gcc/arm-atollic-eabi/6.3.1/../../../../arm-atollic-eabi/lib/armv7e-m/fpu\libc_nano.a(lib_a-memcpy-stub.o)
 .data          0x00000000        0x0 c:/program files (x86)/atollic/truestudio for stm32 9.0.1/armtools/bin/../lib/gcc/arm-atollic-eabi/6.3.1/../../../../arm-atollic-eabi/lib/armv7e-m/fpu\libc_nano.a(lib_a-memcpy-stub.o)
 .bss           0x00000000        0x0 c:/program files (x86)/atollic/truestudio for stm32 9.0.1/armtools/bin/../lib/gcc/arm-atollic-eabi/6.3.1/../../../../arm-atollic-eabi/lib/armv7e-m/fpu\libc_nano.a(lib_a-memcpy-stub.o)
 .text          0x00000000        0x0 c:/program files (x86)/atollic/truestudio for stm32 9.0.1/armtools/bin/../lib/gcc/arm-atollic-eabi/6.3.1/../../../../arm-atollic-eabi/lib/armv7e-m/fpu\libc_nano.a(lib_a-memset.o)
 .data          0x00000000        0x0 c:/program files (x86)/atollic/truestudio for stm32 9.0.1/armtools/bin/../lib/gcc/arm-atollic-eabi/6.3.1/../../../../arm-atollic-eabi/lib/armv7e-m/fpu\libc_nano.a(lib_a-memset.o)
 .bss           0x00000000        0x0 c:/program files (x86)/atollic/truestudio for stm32 9.0.1/armtools/bin/../lib/gcc/arm-atollic-eabi/6.3.1/../../../../arm-atollic-eabi/lib/armv7e-m/fpu\libc_nano.a(lib_a-memset.o)
 .text          0x00000000        0x0 c:/program files (x86)/atollic/truestudio for stm32 9.0.1/armtools/bin/../lib/gcc/arm-atollic-eabi/6.3.1/../../../../arm-atollic-eabi/lib/armv7e-m/fpu\libc_nano.a(lib_a-sprintf.o)
 .data          0x00000000        0x0 c:/program files (x86)/atollic/truestudio for stm32 9.0.1/armtools/bin/../lib/gcc/arm-atollic-eabi/6.3.1/../../../../arm-atollic-eabi/lib/armv7e-m/fpu\libc_nano.a(lib_a-sprintf.o)
 .bss           0x00000000        0x0 c:/program files (x86)/atollic/truestudio for stm32 9.0.1/armtools/bin/../lib/gcc/arm-atollic-eabi/6.3.1/../../../../arm-atollic-eabi/lib/armv7e-m/fpu\libc_nano.a(lib_a-sprintf.o)
 .text._sprintf_r
                0x00000000       0x40 c:/program files (x86)/atollic/truestudio for stm32 9.0.1/armtools/bin/../lib/gcc/arm-atollic-eabi/6.3.1/../../../../arm-atollic-eabi/lib/armv7e-m/fpu\libc_nano.a(lib_a-sprintf.o)
 .data          0x00000000        0x0 c:/program files (x86)/atollic/truestudio for stm32 9.0.1/armtools/bin/../lib/gcc/arm-atollic-eabi/6.3.1/../../../../arm-atollic-eabi/lib/armv7e-m/fpu\libc_nano.a(lib_a-strlen.o)
 .bss           0x00000000        0x0 c:/program files (x86)/atollic/truestudio for stm32 9.0.1/armtools/bin/../lib/gcc/arm-atollic-eabi/6.3.1/../../../../arm-atollic-eabi/lib/armv7e-m/fpu\libc_nano.a(lib_a-strlen.o)
 .text          0x00000000        0x0 c:/program files (x86)/atollic/truestudio for stm32 9.0.1/armtools/bin/../lib/gcc/arm-atollic-eabi/6.3.1/../../../../arm-atollic-eabi/lib/armv7e-m/fpu\libc_nano.a(lib_a-strncpy.o)
 .data          0x00000000        0x0 c:/program files (x86)/atollic/truestudio for stm32 9.0.1/armtools/bin/../lib/gcc/arm-atollic-eabi/6.3.1/../../../../arm-atollic-eabi/lib/armv7e-m/fpu\libc_nano.a(lib_a-strncpy.o)
 .bss           0x00000000        0x0 c:/program files (x86)/atollic/truestudio for stm32 9.0.1/armtools/bin/../lib/gcc/arm-atollic-eabi/6.3.1/../../../../arm-atollic-eabi/lib/armv7e-m/fpu\libc_nano.a(lib_a-strncpy.o)
 .text          0x00000000        0x0 c:/program files (x86)/atollic/truestudio for stm32 9.0.1/armtools/bin/../lib/gcc/arm-atollic-eabi/6.3.1/../../../../arm-atollic-eabi/lib/armv7e-m/fpu\libc_nano.a(lib_a-impure.o)
 .data          0x00000000        0x0 c:/program files (x86)/atollic/truestudio for stm32 9.0.1/armtools/bin/../lib/gcc/arm-atollic-eabi/6.3.1/../../../../arm-atollic-eabi/lib/armv7e-m/fpu\libc_nano.a(lib_a-impure.o)
 .bss           0x00000000        0x0 c:/program files (x86)/atollic/truestudio for stm32 9.0.1/armtools/bin/../lib/gcc/arm-atollic-eabi/6.3.1/../../../../arm-atollic-eabi/lib/armv7e-m/fpu\libc_nano.a(lib_a-impure.o)
 .rodata._global_impure_ptr
                0x00000000        0x4 c:/program files (x86)/atollic/truestudio for stm32 9.0.1/armtools/bin/../lib/gcc/arm-atollic-eabi/6.3.1/../../../../arm-atollic-eabi/lib/armv7e-m/fpu\libc_nano.a(lib_a-impure.o)
 .text          0x00000000        0x0 c:/program files (x86)/atollic/truestudio for stm32 9.0.1/armtools/bin/../lib/gcc/arm-atollic-eabi/6.3.1/../../../../arm-atollic-eabi/lib/armv7e-m/fpu\libc_nano.a(lib_a-nano-svfprintf.o)
 .data          0x00000000        0x0 c:/program files (x86)/atollic/truestudio for stm32 9.0.1/armtools/bin/../lib/gcc/arm-atollic-eabi/6.3.1/../../../../arm-atollic-eabi/lib/armv7e-m/fpu\libc_nano.a(lib_a-nano-svfprintf.o)
 .bss           0x00000000        0x0 c:/program files (x86)/atollic/truestudio for stm32 9.0.1/armtools/bin/../lib/gcc/arm-atollic-eabi/6.3.1/../../../../arm-atollic-eabi/lib/armv7e-m/fpu\libc_nano.a(lib_a-nano-svfprintf.o)
 .text.__ssprint_r
                0x00000000       0xf4 c:/program files (x86)/atollic/truestudio for stm32 9.0.1/armtools/bin/../lib/gcc/arm-atollic-eabi/6.3.1/../../../../arm-atollic-eabi/lib/armv7e-m/fpu\libc_nano.a(lib_a-nano-svfprintf.o)
 .text          0x00000000        0x0 c:/program files (x86)/atollic/truestudio for stm32 9.0.1/armtools/bin/../lib/gcc/arm-atollic-eabi/6.3.1/../../../../arm-atollic-eabi/lib/armv7e-m/fpu\libc_nano.a(lib_a-nano-vfprintf_i.o)
 .data          0x00000000        0x0 c:/program files (x86)/atollic/truestudio for stm32 9.0.1/armtools/bin/../lib/gcc/arm-atollic-eabi/6.3.1/../../../../arm-atollic-eabi/lib/armv7e-m/fpu\libc_nano.a(lib_a-nano-vfprintf_i.o)
 .bss           0x00000000        0x0 c:/program files (x86)/atollic/truestudio for stm32 9.0.1/armtools/bin/../lib/gcc/arm-atollic-eabi/6.3.1/../../../../arm-atollic-eabi/lib/armv7e-m/fpu\libc_nano.a(lib_a-nano-vfprintf_i.o)
 .data          0x00000000        0x0 c:/program files (x86)/atollic/truestudio for stm32 9.0.1/armtools/bin/../lib/gcc/arm-atollic-eabi/6.3.1/../../../../arm-atollic-eabi/lib/armv7e-m/fpu\libc_nano.a(lib_a-memchr.o)
 .bss           0x00000000        0x0 c:/program files (x86)/atollic/truestudio for stm32 9.0.1/armtools/bin/../lib/gcc/arm-atollic-eabi/6.3.1/../../../../arm-atollic-eabi/lib/armv7e-m/fpu\libc_nano.a(lib_a-memchr.o)
 .text          0x00000000        0x0 c:/program files (x86)/atollic/truestudio for stm32 9.0.1/armtools/bin/../lib/gcc/arm-atollic-eabi/6.3.1/../../../../arm-atollic-eabi/lib/armv7e-m/fpu\libc_nano.a(lib_a-memmove.o)
 .data          0x00000000        0x0 c:/program files (x86)/atollic/truestudio for stm32 9.0.1/armtools/bin/../lib/gcc/arm-atollic-eabi/6.3.1/../../../../arm-atollic-eabi/lib/armv7e-m/fpu\libc_nano.a(lib_a-memmove.o)
 .bss           0x00000000        0x0 c:/program files (x86)/atollic/truestudio for stm32 9.0.1/armtools/bin/../lib/gcc/arm-atollic-eabi/6.3.1/../../../../arm-atollic-eabi/lib/armv7e-m/fpu\libc_nano.a(lib_a-memmove.o)
 .text          0x00000000        0x0 c:/program files (x86)/atollic/truestudio for stm32 9.0.1/armtools/bin/../lib/gcc/arm-atollic-eabi/6.3.1/../../../../arm-atollic-eabi/lib/armv7e-m/fpu\libc_nano.a(lib_a-nano-freer.o)
 .data          0x00000000        0x0 c:/program files (x86)/atollic/truestudio for stm32 9.0.1/armtools/bin/../lib/gcc/arm-atollic-eabi/6.3.1/../../../../arm-atollic-eabi/lib/armv7e-m/fpu\libc_nano.a(lib_a-nano-freer.o)
 .bss           0x00000000        0x0 c:/program files (x86)/atollic/truestudio for stm32 9.0.1/armtools/bin/../lib/gcc/arm-atollic-eabi/6.3.1/../../../../arm-atollic-eabi/lib/armv7e-m/fpu\libc_nano.a(lib_a-nano-freer.o)
 .text          0x00000000        0x0 c:/program files (x86)/atollic/truestudio for stm32 9.0.1/armtools/bin/../lib/gcc/arm-atollic-eabi/6.3.1/../../../../arm-atollic-eabi/lib/armv7e-m/fpu\libc_nano.a(lib_a-nano-mallocr.o)
 .data          0x00000000        0x0 c:/program files (x86)/atollic/truestudio for stm32 9.0.1/armtools/bin/../lib/gcc/arm-atollic-eabi/6.3.1/../../../../arm-atollic-eabi/lib/armv7e-m/fpu\libc_nano.a(lib_a-nano-mallocr.o)
 .bss           0x00000000        0x0 c:/program files (x86)/atollic/truestudio for stm32 9.0.1/armtools/bin/../lib/gcc/arm-atollic-eabi/6.3.1/../../../../arm-atollic-eabi/lib/armv7e-m/fpu\libc_nano.a(lib_a-nano-mallocr.o)
 .text          0x00000000        0x0 c:/program files (x86)/atollic/truestudio for stm32 9.0.1/armtools/bin/../lib/gcc/arm-atollic-eabi/6.3.1/../../../../arm-atollic-eabi/lib/armv7e-m/fpu\libc_nano.a(lib_a-nano-reallocr.o)
 .data          0x00000000        0x0 c:/program files (x86)/atollic/truestudio for stm32 9.0.1/armtools/bin/../lib/gcc/arm-atollic-eabi/6.3.1/../../../../arm-atollic-eabi/lib/armv7e-m/fpu\libc_nano.a(lib_a-nano-reallocr.o)
 .bss           0x00000000        0x0 c:/program files (x86)/atollic/truestudio for stm32 9.0.1/armtools/bin/../lib/gcc/arm-atollic-eabi/6.3.1/../../../../arm-atollic-eabi/lib/armv7e-m/fpu\libc_nano.a(lib_a-nano-reallocr.o)
 .text          0x00000000        0x0 c:/program files (x86)/atollic/truestudio for stm32 9.0.1/armtools/bin/../lib/gcc/arm-atollic-eabi/6.3.1/../../../../arm-atollic-eabi/lib/armv7e-m/fpu\libc_nano.a(lib_a-sbrkr.o)
 .data          0x00000000        0x0 c:/program files (x86)/atollic/truestudio for stm32 9.0.1/armtools/bin/../lib/gcc/arm-atollic-eabi/6.3.1/../../../../arm-atollic-eabi/lib/armv7e-m/fpu\libc_nano.a(lib_a-sbrkr.o)
 .bss           0x00000000        0x0 c:/program files (x86)/atollic/truestudio for stm32 9.0.1/armtools/bin/../lib/gcc/arm-atollic-eabi/6.3.1/../../../../arm-atollic-eabi/lib/armv7e-m/fpu\libc_nano.a(lib_a-sbrkr.o)
 .text          0x00000000        0x0 c:/program files (x86)/atollic/truestudio for stm32 9.0.1/armtools/bin/../lib/gcc/arm-atollic-eabi/6.3.1/../../../../arm-atollic-eabi/lib/armv7e-m/fpu\libc_nano.a(lib_a-mlock.o)
 .data          0x00000000        0x0 c:/program files (x86)/atollic/truestudio for stm32 9.0.1/armtools/bin/../lib/gcc/arm-atollic-eabi/6.3.1/../../../../arm-atollic-eabi/lib/armv7e-m/fpu\libc_nano.a(lib_a-mlock.o)
 .bss           0x00000000        0x0 c:/program files (x86)/atollic/truestudio for stm32 9.0.1/armtools/bin/../lib/gcc/arm-atollic-eabi/6.3.1/../../../../arm-atollic-eabi/lib/armv7e-m/fpu\libc_nano.a(lib_a-mlock.o)
 .text          0x00000000        0x0 c:/program files (x86)/atollic/truestudio for stm32 9.0.1/armtools/bin/../lib/gcc/arm-atollic-eabi/6.3.1/../../../../arm-atollic-eabi/lib/armv7e-m/fpu\libc_nano.a(lib_a-nano-msizer.o)
 .data          0x00000000        0x0 c:/program files (x86)/atollic/truestudio for stm32 9.0.1/armtools/bin/../lib/gcc/arm-atollic-eabi/6.3.1/../../../../arm-atollic-eabi/lib/armv7e-m/fpu\libc_nano.a(lib_a-nano-msizer.o)
 .bss           0x00000000        0x0 c:/program files (x86)/atollic/truestudio for stm32 9.0.1/armtools/bin/../lib/gcc/arm-atollic-eabi/6.3.1/../../../../arm-atollic-eabi/lib/armv7e-m/fpu\libc_nano.a(lib_a-nano-msizer.o)
 .text          0x00000000        0x0 c:/program files (x86)/atollic/truestudio for stm32 9.0.1/armtools/bin/../lib/gcc/arm-atollic-eabi/6.3.1/../../../../arm-atollic-eabi/lib/armv7e-m/fpu\libc_nano.a(lib_a-reent.o)
 .data          0x00000000        0x0 c:/program files (x86)/atollic/truestudio for stm32 9.0.1/armtools/bin/../lib/gcc/arm-atollic-eabi/6.3.1/../../../../arm-atollic-eabi/lib/armv7e-m/fpu\libc_nano.a(lib_a-reent.o)
 .bss           0x00000000        0x0 c:/program files (x86)/atollic/truestudio for stm32 9.0.1/armtools/bin/../lib/gcc/arm-atollic-eabi/6.3.1/../../../../arm-atollic-eabi/lib/armv7e-m/fpu\libc_nano.a(lib_a-reent.o)
 .text.cleanup_glue
                0x00000000       0x1a c:/program files (x86)/atollic/truestudio for stm32 9.0.1/armtools/bin/../lib/gcc/arm-atollic-eabi/6.3.1/../../../../arm-atollic-eabi/lib/armv7e-m/fpu\libc_nano.a(lib_a-reent.o)
 .text._reclaim_reent
                0x00000000       0xb8 c:/program files (x86)/atollic/truestudio for stm32 9.0.1/armtools/bin/../lib/gcc/arm-atollic-eabi/6.3.1/../../../../arm-atollic-eabi/lib/armv7e-m/fpu\libc_nano.a(lib_a-reent.o)
 .data          0x00000000        0x0 c:/program files (x86)/atollic/truestudio for stm32 9.0.1/armtools/bin/../lib/gcc/arm-atollic-eabi/6.3.1/armv7e-m/fpu\libgcc.a(_aeabi_uldivmod.o)
 .bss           0x00000000        0x0 c:/program files (x86)/atollic/truestudio for stm32 9.0.1/armtools/bin/../lib/gcc/arm-atollic-eabi/6.3.1/armv7e-m/fpu\libgcc.a(_aeabi_uldivmod.o)
 .data          0x00000000        0x0 c:/program files (x86)/atollic/truestudio for stm32 9.0.1/armtools/bin/../lib/gcc/arm-atollic-eabi/6.3.1/armv7e-m/fpu\libgcc.a(_udivmoddi4.o)
 .bss           0x00000000        0x0 c:/program files (x86)/atollic/truestudio for stm32 9.0.1/armtools/bin/../lib/gcc/arm-atollic-eabi/6.3.1/armv7e-m/fpu\libgcc.a(_udivmoddi4.o)
 .ARM.extab     0x00000000        0x0 c:/program files (x86)/atollic/truestudio for stm32 9.0.1/armtools/bin/../lib/gcc/arm-atollic-eabi/6.3.1/armv7e-m/fpu\libgcc.a(_udivmoddi4.o)
 .data          0x00000000        0x0 c:/program files (x86)/atollic/truestudio for stm32 9.0.1/armtools/bin/../lib/gcc/arm-atollic-eabi/6.3.1/armv7e-m/fpu\libgcc.a(_dvmd_tls.o)
 .bss           0x00000000        0x0 c:/program files (x86)/atollic/truestudio for stm32 9.0.1/armtools/bin/../lib/gcc/arm-atollic-eabi/6.3.1/armv7e-m/fpu\libgcc.a(_dvmd_tls.o)
 .text          0x00000000        0x0 c:/program files (x86)/atollic/truestudio for stm32 9.0.1/armtools/bin/../lib/gcc/arm-atollic-eabi/6.3.1/../../../../arm-atollic-eabi/lib/armv7e-m/fpu\libnosys.a(sbrk.o)
 .data          0x00000000        0x0 c:/program files (x86)/atollic/truestudio for stm32 9.0.1/armtools/bin/../lib/gcc/arm-atollic-eabi/6.3.1/../../../../arm-atollic-eabi/lib/armv7e-m/fpu\libnosys.a(sbrk.o)
 .bss           0x00000000        0x0 c:/program files (x86)/atollic/truestudio for stm32 9.0.1/armtools/bin/../lib/gcc/arm-atollic-eabi/6.3.1/../../../../arm-atollic-eabi/lib/armv7e-m/fpu\libnosys.a(sbrk.o)
 .text          0x00000000        0x0 c:/program files (x86)/atollic/truestudio for stm32 9.0.1/armtools/bin/../lib/gcc/arm-atollic-eabi/6.3.1/armv7e-m/fpu/crtend.o
 .data          0x00000000        0x0 c:/program files (x86)/atollic/truestudio for stm32 9.0.1/armtools/bin/../lib/gcc/arm-atollic-eabi/6.3.1/armv7e-m/fpu/crtend.o
 .bss           0x00000000        0x0 c:/program files (x86)/atollic/truestudio for stm32 9.0.1/armtools/bin/../lib/gcc/arm-atollic-eabi/6.3.1/armv7e-m/fpu/crtend.o
 .eh_frame      0x00000000        0x4 c:/program files (x86)/atollic/truestudio for stm32 9.0.1/armtools/bin/../lib/gcc/arm-atollic-eabi/6.3.1/armv7e-m/fpu/crtend.o
 .ARM.attributes
                0x00000000       0x34 c:/program files (x86)/atollic/truestudio for stm32 9.0.1/armtools/bin/../lib/gcc/arm-atollic-eabi/6.3.1/armv7e-m/fpu/crtend.o
 .text          0x00000000        0x0 c:/program files (x86)/atollic/truestudio for stm32 9.0.1/armtools/bin/../lib/gcc/arm-atollic-eabi/6.3.1/armv7e-m/fpu/crtn.o
 .data          0x00000000        0x0 c:/program files (x86)/atollic/truestudio for stm32 9.0.1/armtools/bin/../lib/gcc/arm-atollic-eabi/6.3.1/armv7e-m/fpu/crtn.o
 .bss           0x00000000        0x0 c:/program files (x86)/atollic/truestudio for stm32 9.0.1/armtools/bin/../lib/gcc/arm-atollic-eabi/6.3.1/armv7e-m/fpu/crtn.o

Memory Configuration

Name             Origin             Length             Attributes
RAM              0x20000000         0x00018000         xrw
FLASH            0x08000000         0x00080000         xr
*default*        0x00000000         0xffffffff

Linker script and memory map

LOAD c:/program files (x86)/atollic/truestudio for stm32 9.0.1/armtools/bin/../lib/gcc/arm-atollic-eabi/6.3.1/armv7e-m/fpu/crti.o
LOAD c:/program files (x86)/atollic/truestudio for stm32 9.0.1/armtools/bin/../lib/gcc/arm-atollic-eabi/6.3.1/armv7e-m/fpu/crtbegin.o
LOAD Drivers\BSP\VL53L1X API\api\core\vl53l1_api.o
LOAD Drivers\BSP\VL53L1X API\api\core\vl53l1_api_calibration.o
LOAD Drivers\BSP\VL53L1X API\api\core\vl53l1_api_core.o
LOAD Drivers\BSP\VL53L1X API\api\core\vl53l1_api_debug.o
LOAD Drivers\BSP\VL53L1X API\api\core\vl53l1_api_preset_modes.o
LOAD Drivers\BSP\VL53L1X API\api\core\vl53l1_api_strings.o
LOAD Drivers\BSP\VL53L1X API\api\core\vl53l1_core.o
LOAD Drivers\BSP\VL53L1X API\api\core\vl53l1_core_support.o
LOAD Drivers\BSP\VL53L1X API\api\core\vl53l1_error_strings.o
LOAD Drivers\BSP\VL53L1X API\api\core\vl53l1_register_funcs.o
LOAD Drivers\BSP\VL53L1X API\api\core\vl53l1_silicon_core.o
LOAD Drivers\BSP\VL53L1X API\api\core\vl53l1_wait.o
LOAD Drivers\BSP\VL53L1X API\api\platform\vl53l1_platform.o
LOAD Drivers\STM32F4xx_HAL_Driver\Src\stm32f4xx_hal.o
LOAD Drivers\STM32F4xx_HAL_Driver\Src\stm32f4xx_hal_cortex.o
LOAD Drivers\STM32F4xx_HAL_Driver\Src\stm32f4xx_hal_dma.o
LOAD Drivers\STM32F4xx_HAL_Driver\Src\stm32f4xx_hal_dma_ex.o
LOAD Drivers\STM32F4xx_HAL_Driver\Src\stm32f4xx_hal_flash.o
LOAD Drivers\STM32F4xx_HAL_Driver\Src\stm32f4xx_hal_flash_ex.o
LOAD Drivers\STM32F4xx_HAL_Driver\Src\stm32f4xx_hal_flash_ramfunc.o
LOAD Drivers\STM32F4xx_HAL_Driver\Src\stm32f4xx_hal_gpio.o
LOAD Drivers\STM32F4xx_HAL_Driver\Src\stm32f4xx_hal_i2c.o
LOAD Drivers\STM32F4xx_HAL_Driver\Src\stm32f4xx_hal_i2c_ex.o
LOAD Drivers\STM32F4xx_HAL_Driver\Src\stm32f4xx_hal_pwr.o
LOAD Drivers\STM32F4xx_HAL_Driver\Src\stm32f4xx_hal_pwr_ex.o
LOAD Drivers\STM32F4xx_HAL_Driver\Src\stm32f4xx_hal_rcc.o
LOAD Drivers\STM32F4xx_HAL_Driver\Src\stm32f4xx_hal_rcc_ex.o
LOAD Drivers\STM32F4xx_HAL_Driver\Src\stm32f4xx_hal_tim.o
LOAD Drivers\STM32F4xx_HAL_Driver\Src\stm32f4xx_hal_tim_ex.o
LOAD Drivers\STM32F4xx_HAL_Driver\Src\stm32f4xx_hal_uart.o
LOAD Middlewares\Third_Party\FreeRTOS\Source\CMSIS_RTOS\cmsis_os.o
LOAD Middlewares\Third_Party\FreeRTOS\Source\croutine.o
LOAD Middlewares\Third_Party\FreeRTOS\Source\event_groups.o
LOAD Middlewares\Third_Party\FreeRTOS\Source\list.o
LOAD Middlewares\Third_Party\FreeRTOS\Source\portable\GCC\ARM_CM4F\port.o
LOAD Middlewares\Third_Party\FreeRTOS\Source\portable\MemMang\heap_4.o
LOAD Middlewares\Third_Party\FreeRTOS\Source\queue.o
LOAD Middlewares\Third_Party\FreeRTOS\Source\tasks.o
LOAD Middlewares\Third_Party\FreeRTOS\Source\timers.o
LOAD Src\freertos.o
LOAD Src\main.o
LOAD Src\stm32f4xx_hal_msp.o
LOAD Src\stm32f4xx_hal_timebase_TIM.o
LOAD Src\stm32f4xx_it.o
LOAD Src\sumobot_functions.o
LOAD Src\sumobot_state_machine.o
LOAD Src\system_stm32f4xx.o
LOAD startup\startup_stm32f401xe.o
                0x00000080                malloc_getpagesize_P = 0x80
START GROUP
LOAD c:/program files (x86)/atollic/truestudio for stm32 9.0.1/armtools/bin/../lib/gcc/arm-atollic-eabi/6.3.1/../../../../arm-atollic-eabi/lib/armv7e-m/fpu\libc_nano.a
LOAD c:/program files (x86)/atollic/truestudio for stm32 9.0.1/armtools/bin/../lib/gcc/arm-atollic-eabi/6.3.1/../../../../arm-atollic-eabi/lib/armv7e-m/fpu\libm.a
END GROUP
START GROUP
LOAD c:/program files (x86)/atollic/truestudio for stm32 9.0.1/armtools/bin/../lib/gcc/arm-atollic-eabi/6.3.1/armv7e-m/fpu\libgcc.a
LOAD c:/program files (x86)/atollic/truestudio for stm32 9.0.1/armtools/bin/../lib/gcc/arm-atollic-eabi/6.3.1/../../../../arm-atollic-eabi/lib/armv7e-m/fpu\libc_nano.a
END GROUP
START GROUP
LOAD c:/program files (x86)/atollic/truestudio for stm32 9.0.1/armtools/bin/../lib/gcc/arm-atollic-eabi/6.3.1/armv7e-m/fpu\libgcc.a
LOAD c:/program files (x86)/atollic/truestudio for stm32 9.0.1/armtools/bin/../lib/gcc/arm-atollic-eabi/6.3.1/../../../../arm-atollic-eabi/lib/armv7e-m/fpu\libc_nano.a
LOAD c:/program files (x86)/atollic/truestudio for stm32 9.0.1/armtools/bin/../lib/gcc/arm-atollic-eabi/6.3.1/../../../../arm-atollic-eabi/lib/armv7e-m/fpu\libnosys.a
END GROUP
START GROUP
LOAD c:/program files (x86)/atollic/truestudio for stm32 9.0.1/armtools/bin/../lib/gcc/arm-atollic-eabi/6.3.1/armv7e-m/fpu\libgcc.a
LOAD c:/program files (x86)/atollic/truestudio for stm32 9.0.1/armtools/bin/../lib/gcc/arm-atollic-eabi/6.3.1/../../../../arm-atollic-eabi/lib/armv7e-m/fpu\libc_nano.a
LOAD c:/program files (x86)/atollic/truestudio for stm32 9.0.1/armtools/bin/../lib/gcc/arm-atollic-eabi/6.3.1/../../../../arm-atollic-eabi/lib/armv7e-m/fpu\libnosys.a
END GROUP
LOAD c:/program files (x86)/atollic/truestudio for stm32 9.0.1/armtools/bin/../lib/gcc/arm-atollic-eabi/6.3.1/armv7e-m/fpu/crtend.o
LOAD c:/program files (x86)/atollic/truestudio for stm32 9.0.1/armtools/bin/../lib/gcc/arm-atollic-eabi/6.3.1/armv7e-m/fpu/crtn.o
                0x20018000                _estack = 0x20018000
                0x00000200                _Min_Heap_Size = 0x200
                0x00000400                _Min_Stack_Size = 0x400

.isr_vector     0x08000000      0x194
                0x08000000                . = ALIGN (0x4)
 *(.isr_vector)
 .isr_vector    0x08000000      0x194 startup\startup_stm32f401xe.o
                0x08000000                g_pfnVectors
                0x08000194                . = ALIGN (0x4)

.text           0x080001a0     0xcd5c
                0x080001a0                . = ALIGN (0x4)
 *(.text)
 .text          0x080001a0       0x40 c:/program files (x86)/atollic/truestudio for stm32 9.0.1/armtools/bin/../lib/gcc/arm-atollic-eabi/6.3.1/armv7e-m/fpu/crtbegin.o
 .text          0x080001e0       0x10 c:/program files (x86)/atollic/truestudio for stm32 9.0.1/armtools/bin/../lib/gcc/arm-atollic-eabi/6.3.1/../../../../arm-atollic-eabi/lib/armv7e-m/fpu\libc_nano.a(lib_a-strlen.o)
                0x080001e0                strlen
 .text          0x080001f0       0xa0 c:/program files (x86)/atollic/truestudio for stm32 9.0.1/armtools/bin/../lib/gcc/arm-atollic-eabi/6.3.1/../../../../arm-atollic-eabi/lib/armv7e-m/fpu\libc_nano.a(lib_a-memchr.o)
                0x080001f0                memchr
 .text          0x08000290       0x30 c:/program files (x86)/atollic/truestudio for stm32 9.0.1/armtools/bin/../lib/gcc/arm-atollic-eabi/6.3.1/armv7e-m/fpu\libgcc.a(_aeabi_uldivmod.o)
                0x08000290                __aeabi_uldivmod
 .text          0x080002c0      0x2dc c:/program files (x86)/atollic/truestudio for stm32 9.0.1/armtools/bin/../lib/gcc/arm-atollic-eabi/6.3.1/armv7e-m/fpu\libgcc.a(_udivmoddi4.o)
                0x080002c0                __udivmoddi4
 .text          0x0800059c        0x4 c:/program files (x86)/atollic/truestudio for stm32 9.0.1/armtools/bin/../lib/gcc/arm-atollic-eabi/6.3.1/armv7e-m/fpu\libgcc.a(_dvmd_tls.o)
                0x0800059c                __aeabi_idiv0
                0x0800059c                __aeabi_ldiv0
 *(.text*)
 .text.ConvertModeToLLD
                0x080005a0       0x58 Drivers\BSP\VL53L1X API\api\core\vl53l1_api.o
 .text.VL53L1_SetDeviceAddress
                0x080005f8       0x30 Drivers\BSP\VL53L1X API\api\core\vl53l1_api.o
                0x080005f8                VL53L1_SetDeviceAddress
 .text.VL53L1_DataInit
                0x08000628       0xaa Drivers\BSP\VL53L1X API\api\core\vl53l1_api.o
                0x08000628                VL53L1_DataInit
 .text.VL53L1_StaticInit
                0x080006d2       0x4e Drivers\BSP\VL53L1X API\api\core\vl53l1_api.o
                0x080006d2                VL53L1_StaticInit
 .text.VL53L1_WaitDeviceBooted
                0x08000720       0x26 Drivers\BSP\VL53L1X API\api\core\vl53l1_api.o
                0x08000720                VL53L1_WaitDeviceBooted
 *fill*         0x08000746        0x2 
 .text.ComputeDevicePresetMode
                0x08000748       0xd4 Drivers\BSP\VL53L1X API\api\core\vl53l1_api.o
 .text.SetPresetMode
                0x0800081c       0xce Drivers\BSP\VL53L1X API\api\core\vl53l1_api.o
 .text.VL53L1_SetPresetMode
                0x080008ea       0x90 Drivers\BSP\VL53L1X API\api\core\vl53l1_api.o
                0x080008ea                VL53L1_SetPresetMode
 .text.VL53L1_SetDistanceMode
                0x0800097a      0x10c Drivers\BSP\VL53L1X API\api\core\vl53l1_api.o
                0x0800097a                VL53L1_SetDistanceMode
 *fill*         0x08000a86        0x2 
 .text.VL53L1_SetMeasurementTimingBudgetMicroSeconds
                0x08000a88      0x1a8 Drivers\BSP\VL53L1X API\api\core\vl53l1_api.o
                0x08000a88                VL53L1_SetMeasurementTimingBudgetMicroSeconds
 .text.VL53L1_GetMeasurementTimingBudgetMicroSeconds
                0x08000c30      0x152 Drivers\BSP\VL53L1X API\api\core\vl53l1_api.o
                0x08000c30                VL53L1_GetMeasurementTimingBudgetMicroSeconds
 *fill*         0x08000d82        0x2 
 .text.VL53L1_SetInterMeasurementPeriodMilliSeconds
                0x08000d84       0x40 Drivers\BSP\VL53L1X API\api\core\vl53l1_api.o
                0x08000d84                VL53L1_SetInterMeasurementPeriodMilliSeconds
 .text.VL53L1_GetInterMeasurementPeriodMilliSeconds
                0x08000dc4       0x48 Drivers\BSP\VL53L1X API\api\core\vl53l1_api.o
                0x08000dc4                VL53L1_GetInterMeasurementPeriodMilliSeconds
 .text.SetLimitValue
                0x08000e0c       0x52 Drivers\BSP\VL53L1X API\api\core\vl53l1_api.o
 .text.VL53L1_SetLimitCheckEnable
                0x08000e5e       0x7c Drivers\BSP\VL53L1X API\api\core\vl53l1_api.o
                0x08000e5e                VL53L1_SetLimitCheckEnable
 .text.VL53L1_GetLimitCheckEnable
                0x08000eda       0x46 Drivers\BSP\VL53L1X API\api\core\vl53l1_api.o
                0x08000eda                VL53L1_GetLimitCheckEnable
 .text.VL53L1_SetLimitCheckValue
                0x08000f20       0x72 Drivers\BSP\VL53L1X API\api\core\vl53l1_api.o
                0x08000f20                VL53L1_SetLimitCheckValue
 .text.VL53L1_GetLimitCheckValue
                0x08000f92       0xae Drivers\BSP\VL53L1X API\api\core\vl53l1_api.o
                0x08000f92                VL53L1_GetLimitCheckValue
 .text.VL53L1_GetSequenceStepEnable
                0x08001040       0x2e Drivers\BSP\VL53L1X API\api\core\vl53l1_api.o
                0x08001040                VL53L1_GetSequenceStepEnable
 *fill*         0x0800106e        0x2 
 .text.VL53L1_StartMeasurement
                0x08001070       0xc8 Drivers\BSP\VL53L1X API\api\core\vl53l1_api.o
                0x08001070                VL53L1_StartMeasurement
 .text.ChangePresetMode
                0x08001138      0x124 Drivers\BSP\VL53L1X API\api\core\vl53l1_api.o
 .text.VL53L1_ClearInterruptAndStartMeasurement
                0x0800125c       0x50 Drivers\BSP\VL53L1X API\api\core\vl53l1_api.o
                0x0800125c                VL53L1_ClearInterruptAndStartMeasurement
 .text.ComputeRQL
                0x080012ac       0xf4 Drivers\BSP\VL53L1X API\api\core\vl53l1_api.o
 .text.ConvertStatusLite
                0x080013a0       0xa0 Drivers\BSP\VL53L1X API\api\core\vl53l1_api.o
 .text.SetSimpleData
                0x08001440      0x1f8 Drivers\BSP\VL53L1X API\api\core\vl53l1_api.o
 .text.VL53L1_GetRangingMeasurementData
                0x08001638       0x78 Drivers\BSP\VL53L1X API\api\core\vl53l1_api.o
                0x08001638                VL53L1_GetRangingMeasurementData
 .text.VL53L1_SetThresholdConfig
                0x080016b0      0x1ac Drivers\BSP\VL53L1X API\api\core\vl53l1_api.o
                0x080016b0                VL53L1_SetThresholdConfig
 .text.VL53L1_data_init
                0x0800185c      0x13a Drivers\BSP\VL53L1X API\api\core\vl53l1_api_core.o
                0x0800185c                VL53L1_data_init
 .text.VL53L1_read_p2p_data
                0x08001996      0x100 Drivers\BSP\VL53L1X API\api\core\vl53l1_api_core.o
                0x08001996                VL53L1_read_p2p_data
 .text.VL53L1_set_inter_measurement_period_ms
                0x08001a96       0x52 Drivers\BSP\VL53L1X API\api\core\vl53l1_api_core.o
                0x08001a96                VL53L1_set_inter_measurement_period_ms
 .text.VL53L1_get_inter_measurement_period_ms
                0x08001ae8       0x4c Drivers\BSP\VL53L1X API\api\core\vl53l1_api_core.o
                0x08001ae8                VL53L1_get_inter_measurement_period_ms
 .text.VL53L1_set_timeouts_us
                0x08001b34       0x70 Drivers\BSP\VL53L1X API\api\core\vl53l1_api_core.o
                0x08001b34                VL53L1_set_timeouts_us
 .text.VL53L1_get_timeouts_us
                0x08001ba4       0xd6 Drivers\BSP\VL53L1X API\api\core\vl53l1_api_core.o
                0x08001ba4                VL53L1_get_timeouts_us
 .text.VL53L1_get_sequence_config_bit
                0x08001c7a       0x6e Drivers\BSP\VL53L1X API\api\core\vl53l1_api_core.o
                0x08001c7a                VL53L1_get_sequence_config_bit
 .text.VL53L1_set_user_zone
                0x08001ce8       0x46 Drivers\BSP\VL53L1X API\api\core\vl53l1_api_core.o
                0x08001ce8                VL53L1_set_user_zone
 .text.VL53L1_get_user_zone
                0x08001d2e       0x44 Drivers\BSP\VL53L1X API\api\core\vl53l1_api_core.o
                0x08001d2e                VL53L1_get_user_zone
 .text.VL53L1_get_mode_mitigation_roi
                0x08001d72       0x68 Drivers\BSP\VL53L1X API\api\core\vl53l1_api_core.o
                0x08001d72                VL53L1_get_mode_mitigation_roi
 *fill*         0x08001dda        0x2 
 .text.VL53L1_get_preset_mode_timing_cfg
                0x08001ddc      0x154 Drivers\BSP\VL53L1X API\api\core\vl53l1_api_core.o
                0x08001ddc                VL53L1_get_preset_mode_timing_cfg
 .text.VL53L1_set_preset_mode
                0x08001f30      0x2ec Drivers\BSP\VL53L1X API\api\core\vl53l1_api_core.o
                0x08001f30                VL53L1_set_preset_mode
 .text.VL53L1_get_lite_sigma_threshold
                0x0800221c       0x2c Drivers\BSP\VL53L1X API\api\core\vl53l1_api_core.o
                0x0800221c                VL53L1_get_lite_sigma_threshold
 .text.VL53L1_set_lite_sigma_threshold
                0x08002248       0x2c Drivers\BSP\VL53L1X API\api\core\vl53l1_api_core.o
                0x08002248                VL53L1_set_lite_sigma_threshold
 .text.VL53L1_get_lite_min_count_rate
                0x08002274       0x2c Drivers\BSP\VL53L1X API\api\core\vl53l1_api_core.o
                0x08002274                VL53L1_get_lite_min_count_rate
 .text.VL53L1_set_lite_min_count_rate
                0x080022a0       0x2c Drivers\BSP\VL53L1X API\api\core\vl53l1_api_core.o
                0x080022a0                VL53L1_set_lite_min_count_rate
 .text.VL53L1_set_vhv_loopbound
                0x080022cc       0x40 Drivers\BSP\VL53L1X API\api\core\vl53l1_api_core.o
                0x080022cc                VL53L1_set_vhv_loopbound
 .text.VL53L1_init_and_start_range
                0x0800230c      0x454 Drivers\BSP\VL53L1X API\api\core\vl53l1_api_core.o
                0x0800230c                VL53L1_init_and_start_range
 .text.VL53L1_stop_range
                0x08002760       0x74 Drivers\BSP\VL53L1X API\api\core\vl53l1_api_core.o
                0x08002760                VL53L1_stop_range
 .text.VL53L1_get_measurement_results
                0x080027d4      0x14e Drivers\BSP\VL53L1X API\api\core\vl53l1_api_core.o
                0x080027d4                VL53L1_get_measurement_results
 .text.VL53L1_get_device_results
                0x08002922       0xfc Drivers\BSP\VL53L1X API\api\core\vl53l1_api_core.o
                0x08002922                VL53L1_get_device_results
 .text.VL53L1_clear_interrupt_and_enable_next_range
                0x08002a1e       0x34 Drivers\BSP\VL53L1X API\api\core\vl53l1_api_core.o
                0x08002a1e                VL53L1_clear_interrupt_and_enable_next_range
 *fill*         0x08002a52        0x2 
 .text.VL53L1_copy_sys_and_core_results_to_range_results
                0x08002a54      0x25c Drivers\BSP\VL53L1X API\api\core\vl53l1_api_core.o
                0x08002a54                VL53L1_copy_sys_and_core_results_to_range_results
 .text.VL53L1_set_GPIO_interrupt_config_struct
                0x08002cb0       0x5c Drivers\BSP\VL53L1X API\api\core\vl53l1_api_core.o
                0x08002cb0                VL53L1_set_GPIO_interrupt_config_struct
 .text.VL53L1_get_GPIO_interrupt_config
                0x08002d0c       0x86 Drivers\BSP\VL53L1X API\api\core\vl53l1_api_core.o
                0x08002d0c                VL53L1_get_GPIO_interrupt_config
 *fill*         0x08002d92        0x2 
 .text.VL53L1_get_tuning_parm
                0x08002d94      0x448 Drivers\BSP\VL53L1X API\api\core\vl53l1_api_core.o
                0x08002d94                VL53L1_get_tuning_parm
 .text.VL53L1_init_refspadchar_config_struct
                0x080031dc       0x48 Drivers\BSP\VL53L1X API\api\core\vl53l1_api_preset_modes.o
                0x080031dc                VL53L1_init_refspadchar_config_struct
 .text.VL53L1_init_ssc_config_struct
                0x08003224       0x42 Drivers\BSP\VL53L1X API\api\core\vl53l1_api_preset_modes.o
                0x08003224                VL53L1_init_ssc_config_struct
 .text.VL53L1_init_xtalk_config_struct
                0x08003266       0xc4 Drivers\BSP\VL53L1X API\api\core\vl53l1_api_preset_modes.o
                0x08003266                VL53L1_init_xtalk_config_struct
 .text.VL53L1_init_offset_cal_config_struct
                0x0800332a       0x4e Drivers\BSP\VL53L1X API\api\core\vl53l1_api_preset_modes.o
                0x0800332a                VL53L1_init_offset_cal_config_struct
 .text.VL53L1_init_tuning_parm_storage_struct
                0x08003378      0x11c Drivers\BSP\VL53L1X API\api\core\vl53l1_api_preset_modes.o
                0x08003378                VL53L1_init_tuning_parm_storage_struct
 .text.VL53L1_preset_mode_standard_ranging
                0x08003494      0x23c Drivers\BSP\VL53L1X API\api\core\vl53l1_api_preset_modes.o
                0x08003494                VL53L1_preset_mode_standard_ranging
 .text.VL53L1_preset_mode_standard_ranging_short_range
                0x080036d0       0x82 Drivers\BSP\VL53L1X API\api\core\vl53l1_api_preset_modes.o
                0x080036d0                VL53L1_preset_mode_standard_ranging_short_range
 .text.VL53L1_preset_mode_standard_ranging_long_range
                0x08003752       0x82 Drivers\BSP\VL53L1X API\api\core\vl53l1_api_preset_modes.o
                0x08003752                VL53L1_preset_mode_standard_ranging_long_range
 .text.VL53L1_preset_mode_standard_ranging_mm1_cal
                0x080037d4       0x4a Drivers\BSP\VL53L1X API\api\core\vl53l1_api_preset_modes.o
                0x080037d4                VL53L1_preset_mode_standard_ranging_mm1_cal
 .text.VL53L1_preset_mode_standard_ranging_mm2_cal
                0x0800381e       0x4a Drivers\BSP\VL53L1X API\api\core\vl53l1_api_preset_modes.o
                0x0800381e                VL53L1_preset_mode_standard_ranging_mm2_cal
 .text.VL53L1_preset_mode_timed_ranging
                0x08003868       0x74 Drivers\BSP\VL53L1X API\api\core\vl53l1_api_preset_modes.o
                0x08003868                VL53L1_preset_mode_timed_ranging
 .text.VL53L1_preset_mode_timed_ranging_short_range
                0x080038dc       0x74 Drivers\BSP\VL53L1X API\api\core\vl53l1_api_preset_modes.o
                0x080038dc                VL53L1_preset_mode_timed_ranging_short_range
 .text.VL53L1_preset_mode_timed_ranging_long_range
                0x08003950       0x74 Drivers\BSP\VL53L1X API\api\core\vl53l1_api_preset_modes.o
                0x08003950                VL53L1_preset_mode_timed_ranging_long_range
 .text.VL53L1_preset_mode_low_power_auto_ranging
                0x080039c4       0x4c Drivers\BSP\VL53L1X API\api\core\vl53l1_api_preset_modes.o
                0x080039c4                VL53L1_preset_mode_low_power_auto_ranging
 .text.VL53L1_preset_mode_low_power_auto_short_ranging
                0x08003a10       0x4c Drivers\BSP\VL53L1X API\api\core\vl53l1_api_preset_modes.o
                0x08003a10                VL53L1_preset_mode_low_power_auto_short_ranging
 .text.VL53L1_preset_mode_low_power_auto_long_ranging
                0x08003a5c       0x4c Drivers\BSP\VL53L1X API\api\core\vl53l1_api_preset_modes.o
                0x08003a5c                VL53L1_preset_mode_low_power_auto_long_ranging
 .text.VL53L1_preset_mode_singleshot_ranging
                0x08003aa8       0x6c Drivers\BSP\VL53L1X API\api\core\vl53l1_api_preset_modes.o
                0x08003aa8                VL53L1_preset_mode_singleshot_ranging
 .text.VL53L1_preset_mode_olt
                0x08003b14       0x44 Drivers\BSP\VL53L1X API\api\core\vl53l1_api_preset_modes.o
                0x08003b14                VL53L1_preset_mode_olt
 .text.VL53L1_init_version
                0x08003b58       0x38 Drivers\BSP\VL53L1X API\api\core\vl53l1_core.o
                0x08003b58                VL53L1_init_version
 .text.VL53L1_init_ll_driver_state
                0x08003b90       0x52 Drivers\BSP\VL53L1X API\api\core\vl53l1_core.o
                0x08003b90                VL53L1_init_ll_driver_state
 *fill*         0x08003be2        0x2 
 .text.VL53L1_update_ll_driver_rd_state
                0x08003be4      0x110 Drivers\BSP\VL53L1X API\api\core\vl53l1_core.o
                0x08003be4                VL53L1_update_ll_driver_rd_state
 .text.VL53L1_check_ll_driver_rd_state
                0x08003cf4       0x96 Drivers\BSP\VL53L1X API\api\core\vl53l1_core.o
                0x08003cf4                VL53L1_check_ll_driver_rd_state
 .text.VL53L1_update_ll_driver_cfg_state
                0x08003d8a       0xcc Drivers\BSP\VL53L1X API\api\core\vl53l1_core.o
                0x08003d8a                VL53L1_update_ll_driver_cfg_state
 .text.VL53L1_copy_rtn_good_spads_to_buffer
                0x08003e56      0x174 Drivers\BSP\VL53L1X API\api\core\vl53l1_core.o
                0x08003e56                VL53L1_copy_rtn_good_spads_to_buffer
 .text.VL53L1_i2c_encode_uint16_t
                0x08003fca       0x54 Drivers\BSP\VL53L1X API\api\core\vl53l1_core.o
                0x08003fca                VL53L1_i2c_encode_uint16_t
 .text.VL53L1_i2c_decode_uint16_t
                0x0800401e       0x40 Drivers\BSP\VL53L1X API\api\core\vl53l1_core.o
                0x0800401e                VL53L1_i2c_decode_uint16_t
 .text.VL53L1_i2c_encode_int16_t
                0x0800405e       0x56 Drivers\BSP\VL53L1X API\api\core\vl53l1_core.o
                0x0800405e                VL53L1_i2c_encode_int16_t
 .text.VL53L1_i2c_decode_int16_t
                0x080040b4       0x52 Drivers\BSP\VL53L1X API\api\core\vl53l1_core.o
                0x080040b4                VL53L1_i2c_decode_int16_t
 .text.VL53L1_i2c_encode_uint32_t
                0x08004106       0x52 Drivers\BSP\VL53L1X API\api\core\vl53l1_core.o
                0x08004106                VL53L1_i2c_encode_uint32_t
 .text.VL53L1_i2c_decode_uint32_t
                0x08004158       0x3a Drivers\BSP\VL53L1X API\api\core\vl53l1_core.o
                0x08004158                VL53L1_i2c_decode_uint32_t
 .text.VL53L1_i2c_decode_int32_t
                0x08004192       0x4a Drivers\BSP\VL53L1X API\api\core\vl53l1_core.o
                0x08004192                VL53L1_i2c_decode_int32_t
 .text.VL53L1_calc_macro_period_us
                0x080041dc       0x5e Drivers\BSP\VL53L1X API\api\core\vl53l1_core.o
                0x080041dc                VL53L1_calc_macro_period_us
 *fill*         0x0800423a        0x2 
 .text.VL53L1_calc_range_ignore_threshold
                0x0800423c       0xc4 Drivers\BSP\VL53L1X API\api\core\vl53l1_core.o
                0x0800423c                VL53L1_calc_range_ignore_threshold
 .text.VL53L1_calc_timeout_mclks
                0x08004300       0x2e Drivers\BSP\VL53L1X API\api\core\vl53l1_core.o
                0x08004300                VL53L1_calc_timeout_mclks
 .text.VL53L1_calc_encoded_timeout
                0x0800432e       0x30 Drivers\BSP\VL53L1X API\api\core\vl53l1_core.o
                0x0800432e                VL53L1_calc_encoded_timeout
 .text.VL53L1_calc_timeout_us
                0x0800435e       0x72 Drivers\BSP\VL53L1X API\api\core\vl53l1_core.o
                0x0800435e                VL53L1_calc_timeout_us
 .text.VL53L1_calc_decoded_timeout_us
                0x080043d0       0x32 Drivers\BSP\VL53L1X API\api\core\vl53l1_core.o
                0x080043d0                VL53L1_calc_decoded_timeout_us
 .text.VL53L1_encode_timeout
                0x08004402       0x58 Drivers\BSP\VL53L1X API\api\core\vl53l1_core.o
                0x08004402                VL53L1_encode_timeout
 .text.VL53L1_decode_timeout
                0x0800445a       0x2c Drivers\BSP\VL53L1X API\api\core\vl53l1_core.o
                0x0800445a                VL53L1_decode_timeout
 .text.VL53L1_calc_timeout_register_values
                0x08004486       0xf2 Drivers\BSP\VL53L1X API\api\core\vl53l1_core.o
                0x08004486                VL53L1_calc_timeout_register_values
 .text.VL53L1_encode_row_col
                0x08004578       0x4e Drivers\BSP\VL53L1X API\api\core\vl53l1_core.o
                0x08004578                VL53L1_encode_row_col
 .text.VL53L1_decode_zone_size
                0x080045c6       0x30 Drivers\BSP\VL53L1X API\api\core\vl53l1_core.o
                0x080045c6                VL53L1_decode_zone_size
 .text.VL53L1_encode_zone_size
                0x080045f6       0x2c Drivers\BSP\VL53L1X API\api\core\vl53l1_core.o
                0x080045f6                VL53L1_encode_zone_size
 .text.VL53L1_encode_GPIO_interrupt_config
                0x08004622       0x64 Drivers\BSP\VL53L1X API\api\core\vl53l1_core.o
                0x08004622                VL53L1_encode_GPIO_interrupt_config
 .text.VL53L1_decode_GPIO_interrupt_config
                0x08004686       0x76 Drivers\BSP\VL53L1X API\api\core\vl53l1_core.o
                0x08004686                VL53L1_decode_GPIO_interrupt_config
 .text.VL53L1_set_GPIO_distance_threshold
                0x080046fc       0x38 Drivers\BSP\VL53L1X API\api\core\vl53l1_core.o
                0x080046fc                VL53L1_set_GPIO_distance_threshold
 .text.VL53L1_set_GPIO_rate_threshold
                0x08004734       0x38 Drivers\BSP\VL53L1X API\api\core\vl53l1_core.o
                0x08004734                VL53L1_set_GPIO_rate_threshold
 .text.VL53L1_set_GPIO_thresholds_from_struct
                0x0800476c       0x4a Drivers\BSP\VL53L1X API\api\core\vl53l1_core.o
                0x0800476c                VL53L1_set_GPIO_thresholds_from_struct
 .text.VL53L1_low_power_auto_data_init
                0x080047b6       0x68 Drivers\BSP\VL53L1X API\api\core\vl53l1_core.o
                0x080047b6                VL53L1_low_power_auto_data_init
 .text.VL53L1_low_power_auto_data_stop_range
                0x0800481e       0x74 Drivers\BSP\VL53L1X API\api\core\vl53l1_core.o
                0x0800481e                VL53L1_low_power_auto_data_stop_range
 .text.VL53L1_config_low_power_auto_mode
                0x08004892       0x40 Drivers\BSP\VL53L1X API\api\core\vl53l1_core.o
                0x08004892                VL53L1_config_low_power_auto_mode
 .text.VL53L1_low_power_auto_setup_manual_calibration
                0x080048d2       0x8a Drivers\BSP\VL53L1X API\api\core\vl53l1_core.o
                0x080048d2                VL53L1_low_power_auto_setup_manual_calibration
 .text.VL53L1_low_power_auto_update_DSS
                0x0800495c       0xee Drivers\BSP\VL53L1X API\api\core\vl53l1_core.o
                0x0800495c                VL53L1_low_power_auto_update_DSS
 .text.VL53L1_calc_pll_period_us
                0x08004a4a       0x28 Drivers\BSP\VL53L1X API\api\core\vl53l1_core_support.o
                0x08004a4a                VL53L1_calc_pll_period_us
 .text.VL53L1_decode_vcsel_period
                0x08004a72       0x26 Drivers\BSP\VL53L1X API\api\core\vl53l1_core_support.o
                0x08004a72                VL53L1_decode_vcsel_period
 .text.VL53L1_decode_row_col
                0x08004a98       0x5e Drivers\BSP\VL53L1X API\api\core\vl53l1_core_support.o
                0x08004a98                VL53L1_decode_row_col
 .text.VL53L1_i2c_encode_static_nvm_managed
                0x08004af6       0xb6 Drivers\BSP\VL53L1X API\api\core\vl53l1_register_funcs.o
                0x08004af6                VL53L1_i2c_encode_static_nvm_managed
 .text.VL53L1_i2c_decode_static_nvm_managed
                0x08004bac       0xb4 Drivers\BSP\VL53L1X API\api\core\vl53l1_register_funcs.o
                0x08004bac                VL53L1_i2c_decode_static_nvm_managed
 .text.VL53L1_get_static_nvm_managed
                0x08004c60       0x4e Drivers\BSP\VL53L1X API\api\core\vl53l1_register_funcs.o
                0x08004c60                VL53L1_get_static_nvm_managed
 .text.VL53L1_i2c_encode_customer_nvm_managed
                0x08004cae      0x114 Drivers\BSP\VL53L1X API\api\core\vl53l1_register_funcs.o
                0x08004cae                VL53L1_i2c_encode_customer_nvm_managed
 .text.VL53L1_i2c_decode_customer_nvm_managed
                0x08004dc2      0x11a Drivers\BSP\VL53L1X API\api\core\vl53l1_register_funcs.o
                0x08004dc2                VL53L1_i2c_decode_customer_nvm_managed
 .text.VL53L1_get_customer_nvm_managed
                0x08004edc       0x4e Drivers\BSP\VL53L1X API\api\core\vl53l1_register_funcs.o
                0x08004edc                VL53L1_get_customer_nvm_managed
 .text.VL53L1_i2c_encode_static_config
                0x08004f2a      0x1c6 Drivers\BSP\VL53L1X API\api\core\vl53l1_register_funcs.o
                0x08004f2a                VL53L1_i2c_encode_static_config
 .text.VL53L1_i2c_encode_general_config
                0x080050f0      0x108 Drivers\BSP\VL53L1X API\api\core\vl53l1_register_funcs.o
                0x080050f0                VL53L1_i2c_encode_general_config
 .text.VL53L1_i2c_encode_timing_config
                0x080051f8      0x104 Drivers\BSP\VL53L1X API\api\core\vl53l1_register_funcs.o
                0x080051f8                VL53L1_i2c_encode_timing_config
 .text.VL53L1_i2c_encode_dynamic_config
                0x080052fc      0x10a Drivers\BSP\VL53L1X API\api\core\vl53l1_register_funcs.o
                0x080052fc                VL53L1_i2c_encode_dynamic_config
 .text.VL53L1_i2c_encode_system_control
                0x08005406       0x76 Drivers\BSP\VL53L1X API\api\core\vl53l1_register_funcs.o
                0x08005406                VL53L1_i2c_encode_system_control
 .text.VL53L1_set_system_control
                0x0800547c       0x4e Drivers\BSP\VL53L1X API\api\core\vl53l1_register_funcs.o
                0x0800547c                VL53L1_set_system_control
 .text.VL53L1_i2c_decode_system_results
                0x080054ca      0x1ec Drivers\BSP\VL53L1X API\api\core\vl53l1_register_funcs.o
                0x080054ca                VL53L1_i2c_decode_system_results
 .text.VL53L1_i2c_decode_core_results
                0x080056b6       0xc2 Drivers\BSP\VL53L1X API\api\core\vl53l1_register_funcs.o
                0x080056b6                VL53L1_i2c_decode_core_results
 .text.VL53L1_i2c_decode_debug_results
                0x08005778      0x2e4 Drivers\BSP\VL53L1X API\api\core\vl53l1_register_funcs.o
                0x08005778                VL53L1_i2c_decode_debug_results
 .text.VL53L1_i2c_decode_nvm_copy_data
                0x08005a5c      0x24c Drivers\BSP\VL53L1X API\api\core\vl53l1_register_funcs.o
                0x08005a5c                VL53L1_i2c_decode_nvm_copy_data
 .text.VL53L1_get_nvm_copy_data
                0x08005ca8       0x56 Drivers\BSP\VL53L1X API\api\core\vl53l1_register_funcs.o
                0x08005ca8                VL53L1_get_nvm_copy_data
 .text.VL53L1_poll_for_boot_completion
                0x08005cfe       0x58 Drivers\BSP\VL53L1X API\api\core\vl53l1_wait.o
                0x08005cfe                VL53L1_poll_for_boot_completion
 .text._I2CWrite
                0x08005d56       0x42 Drivers\BSP\VL53L1X API\api\platform\vl53l1_platform.o
                0x08005d56                _I2CWrite
 .text._I2CRead
                0x08005d98       0x48 Drivers\BSP\VL53L1X API\api\platform\vl53l1_platform.o
                0x08005d98                _I2CRead
 .text.VL53L1_WriteMulti
                0x08005de0       0x6c Drivers\BSP\VL53L1X API\api\platform\vl53l1_platform.o
                0x08005de0                VL53L1_WriteMulti
 .text.VL53L1_ReadMulti
                0x08005e4c       0x68 Drivers\BSP\VL53L1X API\api\platform\vl53l1_platform.o
                0x08005e4c                VL53L1_ReadMulti
 .text.VL53L1_WrByte
                0x08005eb4       0x54 Drivers\BSP\VL53L1X API\api\platform\vl53l1_platform.o
                0x08005eb4                VL53L1_WrByte
 .text.VL53L1_RdByte
                0x08005f08       0x64 Drivers\BSP\VL53L1X API\api\platform\vl53l1_platform.o
                0x08005f08                VL53L1_RdByte
 .text.VL53L1_RdWord
                0x08005f6c       0x80 Drivers\BSP\VL53L1X API\api\platform\vl53l1_platform.o
                0x08005f6c                VL53L1_RdWord
 .text.VL53L1_GetTickCount
                0x08005fec       0x22 Drivers\BSP\VL53L1X API\api\platform\vl53l1_platform.o
                0x08005fec                VL53L1_GetTickCount
 .text.VL53L1_WaitMs
                0x0800600e       0x1c Drivers\BSP\VL53L1X API\api\platform\vl53l1_platform.o
                0x0800600e                VL53L1_WaitMs
 *fill*         0x0800602a        0x2 
 .text.VL53L1_WaitUs
                0x0800602c       0x2c Drivers\BSP\VL53L1X API\api\platform\vl53l1_platform.o
                0x0800602c                VL53L1_WaitUs
 .text.VL53L1_WaitValueMaskEx
                0x08006058      0x128 Drivers\BSP\VL53L1X API\api\platform\vl53l1_platform.o
                0x08006058                VL53L1_WaitValueMaskEx
 .text.HAL_Init
                0x08006180       0x44 Drivers\STM32F4xx_HAL_Driver\Src\stm32f4xx_hal.o
                0x08006180                HAL_Init
 .text.HAL_IncTick
                0x080061c4       0x28 Drivers\STM32F4xx_HAL_Driver\Src\stm32f4xx_hal.o
                0x080061c4                HAL_IncTick
 .text.HAL_GetTick
                0x080061ec       0x18 Drivers\STM32F4xx_HAL_Driver\Src\stm32f4xx_hal.o
                0x080061ec                HAL_GetTick
 .text.HAL_Delay
                0x08006204       0x44 Drivers\STM32F4xx_HAL_Driver\Src\stm32f4xx_hal.o
                0x08006204                HAL_Delay
 .text.NVIC_SetPriorityGrouping
                0x08006248       0x48 Drivers\STM32F4xx_HAL_Driver\Src\stm32f4xx_hal_cortex.o
 .text.NVIC_GetPriorityGrouping
                0x08006290       0x1c Drivers\STM32F4xx_HAL_Driver\Src\stm32f4xx_hal_cortex.o
 .text.NVIC_EnableIRQ
                0x080062ac       0x34 Drivers\STM32F4xx_HAL_Driver\Src\stm32f4xx_hal_cortex.o
 .text.NVIC_SetPriority
                0x080062e0       0x54 Drivers\STM32F4xx_HAL_Driver\Src\stm32f4xx_hal_cortex.o
 .text.NVIC_EncodePriority
                0x08006334       0x62 Drivers\STM32F4xx_HAL_Driver\Src\stm32f4xx_hal_cortex.o
 *fill*         0x08006396        0x2 
 .text.SysTick_Config
                0x08006398       0x44 Drivers\STM32F4xx_HAL_Driver\Src\stm32f4xx_hal_cortex.o
 .text.HAL_NVIC_SetPriorityGrouping
                0x080063dc       0x16 Drivers\STM32F4xx_HAL_Driver\Src\stm32f4xx_hal_cortex.o
                0x080063dc                HAL_NVIC_SetPriorityGrouping
 .text.HAL_NVIC_SetPriority
                0x080063f2       0x38 Drivers\STM32F4xx_HAL_Driver\Src\stm32f4xx_hal_cortex.o
                0x080063f2                HAL_NVIC_SetPriority
 .text.HAL_NVIC_EnableIRQ
                0x0800642a       0x1c Drivers\STM32F4xx_HAL_Driver\Src\stm32f4xx_hal_cortex.o
                0x0800642a                HAL_NVIC_EnableIRQ
 .text.HAL_SYSTICK_Config
                0x08006446       0x18 Drivers\STM32F4xx_HAL_Driver\Src\stm32f4xx_hal_cortex.o
                0x08006446                HAL_SYSTICK_Config
 *fill*         0x0800645e        0x2 
 .text.HAL_SYSTICK_CLKSourceConfig
                0x08006460       0x38 Drivers\STM32F4xx_HAL_Driver\Src\stm32f4xx_hal_cortex.o
                0x08006460                HAL_SYSTICK_CLKSourceConfig
 .text.HAL_GPIO_Init
                0x08006498      0x304 Drivers\STM32F4xx_HAL_Driver\Src\stm32f4xx_hal_gpio.o
                0x08006498                HAL_GPIO_Init
 .text.HAL_GPIO_WritePin
                0x0800679c       0x32 Drivers\STM32F4xx_HAL_Driver\Src\stm32f4xx_hal_gpio.o
                0x0800679c                HAL_GPIO_WritePin
 *fill*         0x080067ce        0x2 
 .text.HAL_GPIO_EXTI_IRQHandler
                0x080067d0       0x30 Drivers\STM32F4xx_HAL_Driver\Src\stm32f4xx_hal_gpio.o
                0x080067d0                HAL_GPIO_EXTI_IRQHandler
 .text.HAL_GPIO_EXTI_Callback
                0x08006800       0x16 Drivers\STM32F4xx_HAL_Driver\Src\stm32f4xx_hal_gpio.o
                0x08006800                HAL_GPIO_EXTI_Callback
 *fill*         0x08006816        0x2 
 .text.HAL_I2C_Init
                0x08006818      0x1c0 Drivers\STM32F4xx_HAL_Driver\Src\stm32f4xx_hal_i2c.o
                0x08006818                HAL_I2C_Init
 .text.HAL_I2C_Master_Transmit
                0x080069d8      0x21c Drivers\STM32F4xx_HAL_Driver\Src\stm32f4xx_hal_i2c.o
                0x080069d8                HAL_I2C_Master_Transmit
 .text.HAL_I2C_Master_Receive
                0x08006bf4      0x464 Drivers\STM32F4xx_HAL_Driver\Src\stm32f4xx_hal_i2c.o
                0x08006bf4                HAL_I2C_Master_Receive
 .text.I2C_MasterRequestWrite
                0x08007058      0x104 Drivers\STM32F4xx_HAL_Driver\Src\stm32f4xx_hal_i2c.o
 .text.I2C_MasterRequestRead
                0x0800715c      0x190 Drivers\STM32F4xx_HAL_Driver\Src\stm32f4xx_hal_i2c.o
 .text.I2C_WaitOnFlagUntilTimeout
                0x080072ec       0xa2 Drivers\STM32F4xx_HAL_Driver\Src\stm32f4xx_hal_i2c.o
 .text.I2C_WaitOnMasterAddressFlagUntilTimeout
                0x0800738e       0xdc Drivers\STM32F4xx_HAL_Driver\Src\stm32f4xx_hal_i2c.o
 .text.I2C_WaitOnTXEFlagUntilTimeout
                0x0800746a       0x7a Drivers\STM32F4xx_HAL_Driver\Src\stm32f4xx_hal_i2c.o
 .text.I2C_WaitOnBTFFlagUntilTimeout
                0x080074e4       0x7a Drivers\STM32F4xx_HAL_Driver\Src\stm32f4xx_hal_i2c.o
 .text.I2C_WaitOnRXNEFlagUntilTimeout
                0x0800755e       0x94 Drivers\STM32F4xx_HAL_Driver\Src\stm32f4xx_hal_i2c.o
 .text.I2C_IsAcknowledgeFailed
                0x080075f2       0x50 Drivers\STM32F4xx_HAL_Driver\Src\stm32f4xx_hal_i2c.o
 *fill*         0x08007642        0x2 
 .text.HAL_RCC_OscConfig
                0x08007644      0x484 Drivers\STM32F4xx_HAL_Driver\Src\stm32f4xx_hal_rcc.o
                0x08007644                HAL_RCC_OscConfig
 .text.HAL_RCC_ClockConfig
                0x08007ac8      0x1c4 Drivers\STM32F4xx_HAL_Driver\Src\stm32f4xx_hal_rcc.o
                0x08007ac8                HAL_RCC_ClockConfig
 .text.HAL_RCC_GetSysClockFreq
                0x08007c8c      0x1b0 Drivers\STM32F4xx_HAL_Driver\Src\stm32f4xx_hal_rcc.o
                0x08007c8c                HAL_RCC_GetSysClockFreq
 .text.HAL_RCC_GetHCLKFreq
                0x08007e3c       0x18 Drivers\STM32F4xx_HAL_Driver\Src\stm32f4xx_hal_rcc.o
                0x08007e3c                HAL_RCC_GetHCLKFreq
 .text.HAL_RCC_GetPCLK1Freq
                0x08007e54       0x28 Drivers\STM32F4xx_HAL_Driver\Src\stm32f4xx_hal_rcc.o
                0x08007e54                HAL_RCC_GetPCLK1Freq
 .text.HAL_RCC_GetPCLK2Freq
                0x08007e7c       0x28 Drivers\STM32F4xx_HAL_Driver\Src\stm32f4xx_hal_rcc.o
                0x08007e7c                HAL_RCC_GetPCLK2Freq
 .text.HAL_RCC_GetClockConfig
                0x08007ea4       0x64 Drivers\STM32F4xx_HAL_Driver\Src\stm32f4xx_hal_rcc.o
                0x08007ea4                HAL_RCC_GetClockConfig
 .text.HAL_TIM_Base_Init
                0x08007f08       0x56 Drivers\STM32F4xx_HAL_Driver\Src\stm32f4xx_hal_tim.o
                0x08007f08                HAL_TIM_Base_Init
 .text.HAL_TIM_Base_MspInit
                0x08007f5e       0x14 Drivers\STM32F4xx_HAL_Driver\Src\stm32f4xx_hal_tim.o
                0x08007f5e                HAL_TIM_Base_MspInit
 .text.HAL_TIM_Base_Start
                0x08007f72       0x36 Drivers\STM32F4xx_HAL_Driver\Src\stm32f4xx_hal_tim.o
                0x08007f72                HAL_TIM_Base_Start
 .text.HAL_TIM_Base_Start_IT
                0x08007fa8       0x36 Drivers\STM32F4xx_HAL_Driver\Src\stm32f4xx_hal_tim.o
                0x08007fa8                HAL_TIM_Base_Start_IT
 .text.HAL_TIM_PWM_Init
                0x08007fde       0x56 Drivers\STM32F4xx_HAL_Driver\Src\stm32f4xx_hal_tim.o
                0x08007fde                HAL_TIM_PWM_Init
 .text.HAL_TIM_PWM_Start
                0x08008034       0x50 Drivers\STM32F4xx_HAL_Driver\Src\stm32f4xx_hal_tim.o
                0x08008034                HAL_TIM_PWM_Start
 .text.HAL_TIM_Encoder_Init
                0x08008084      0x12c Drivers\STM32F4xx_HAL_Driver\Src\stm32f4xx_hal_tim.o
                0x08008084                HAL_TIM_Encoder_Init
 .text.HAL_TIM_Encoder_Start
                0x080081b0       0x6e Drivers\STM32F4xx_HAL_Driver\Src\stm32f4xx_hal_tim.o
                0x080081b0                HAL_TIM_Encoder_Start
 .text.HAL_TIM_IRQHandler
                0x0800821e      0x210 Drivers\STM32F4xx_HAL_Driver\Src\stm32f4xx_hal_tim.o
                0x0800821e                HAL_TIM_IRQHandler
 *fill*         0x0800842e        0x2 
 .text.HAL_TIM_PWM_ConfigChannel
                0x08008430      0x18c Drivers\STM32F4xx_HAL_Driver\Src\stm32f4xx_hal_tim.o
                0x08008430                HAL_TIM_PWM_ConfigChannel
 .text.HAL_TIM_OC_DelayElapsedCallback
                0x080085bc       0x14 Drivers\STM32F4xx_HAL_Driver\Src\stm32f4xx_hal_tim.o
                0x080085bc                HAL_TIM_OC_DelayElapsedCallback
 .text.HAL_TIM_IC_CaptureCallback
                0x080085d0       0x14 Drivers\STM32F4xx_HAL_Driver\Src\stm32f4xx_hal_tim.o
                0x080085d0                HAL_TIM_IC_CaptureCallback
 .text.HAL_TIM_PWM_PulseFinishedCallback
                0x080085e4       0x14 Drivers\STM32F4xx_HAL_Driver\Src\stm32f4xx_hal_tim.o
                0x080085e4                HAL_TIM_PWM_PulseFinishedCallback
 .text.HAL_TIM_TriggerCallback
                0x080085f8       0x14 Drivers\STM32F4xx_HAL_Driver\Src\stm32f4xx_hal_tim.o
                0x080085f8                HAL_TIM_TriggerCallback
 .text.TIM_Base_SetConfig
                0x0800860c      0x108 Drivers\STM32F4xx_HAL_Driver\Src\stm32f4xx_hal_tim.o
                0x0800860c                TIM_Base_SetConfig
 .text.TIM_OC2_SetConfig
                0x08008714       0xdc Drivers\STM32F4xx_HAL_Driver\Src\stm32f4xx_hal_tim.o
                0x08008714                TIM_OC2_SetConfig
 .text.TIM_CCxChannelCmd
                0x080087f0       0x46 Drivers\STM32F4xx_HAL_Driver\Src\stm32f4xx_hal_tim.o
                0x080087f0                TIM_CCxChannelCmd
 *fill*         0x08008836        0x2 
 .text.TIM_OC1_SetConfig
                0x08008838       0xd0 Drivers\STM32F4xx_HAL_Driver\Src\stm32f4xx_hal_tim.o
 .text.TIM_OC3_SetConfig
                0x08008908       0xd8 Drivers\STM32F4xx_HAL_Driver\Src\stm32f4xx_hal_tim.o
 .text.TIM_OC4_SetConfig
                0x080089e0       0xac Drivers\STM32F4xx_HAL_Driver\Src\stm32f4xx_hal_tim.o
 .text.HAL_TIMEx_MasterConfigSynchronization
                0x08008a8c       0x8a Drivers\STM32F4xx_HAL_Driver\Src\stm32f4xx_hal_tim_ex.o
                0x08008a8c                HAL_TIMEx_MasterConfigSynchronization
 .text.HAL_TIMEx_CommutationCallback
                0x08008b16       0x14 Drivers\STM32F4xx_HAL_Driver\Src\stm32f4xx_hal_tim_ex.o
                0x08008b16                HAL_TIMEx_CommutationCallback
 .text.HAL_TIMEx_BreakCallback
                0x08008b2a       0x14 Drivers\STM32F4xx_HAL_Driver\Src\stm32f4xx_hal_tim_ex.o
                0x08008b2a                HAL_TIMEx_BreakCallback
 .text.HAL_UART_Init
                0x08008b3e       0x9a Drivers\STM32F4xx_HAL_Driver\Src\stm32f4xx_hal_uart.o
                0x08008b3e                HAL_UART_Init
 .text.HAL_UART_Transmit
                0x08008bd8      0x130 Drivers\STM32F4xx_HAL_Driver\Src\stm32f4xx_hal_uart.o
                0x08008bd8                HAL_UART_Transmit
 .text.UART_WaitOnFlagUntilTimeout
                0x08008d08       0x94 Drivers\STM32F4xx_HAL_Driver\Src\stm32f4xx_hal_uart.o
 .text.UART_SetConfig
                0x08008d9c      0x438 Drivers\STM32F4xx_HAL_Driver\Src\stm32f4xx_hal_uart.o
 .text.makeFreeRtosPriority
                0x080091d4       0x30 Middlewares\Third_Party\FreeRTOS\Source\CMSIS_RTOS\cmsis_os.o
 .text.osKernelStart
                0x08009204        0xe Middlewares\Third_Party\FreeRTOS\Source\CMSIS_RTOS\cmsis_os.o
                0x08009204                osKernelStart
 .text.osThreadCreate
                0x08009212       0x4e Middlewares\Third_Party\FreeRTOS\Source\CMSIS_RTOS\cmsis_os.o
                0x08009212                osThreadCreate
 .text.osDelay  0x08009260       0x28 Middlewares\Third_Party\FreeRTOS\Source\CMSIS_RTOS\cmsis_os.o
                0x08009260                osDelay
 .text.osMutexCreate
                0x08009288       0x18 Middlewares\Third_Party\FreeRTOS\Source\CMSIS_RTOS\cmsis_os.o
                0x08009288                osMutexCreate
 .text.osSystickHandler
                0x080092a0       0x16 Middlewares\Third_Party\FreeRTOS\Source\CMSIS_RTOS\cmsis_os.o
                0x080092a0                osSystickHandler
 .text.vListInitialise
                0x080092b6       0x40 Middlewares\Third_Party\FreeRTOS\Source\list.o
                0x080092b6                vListInitialise
 .text.vListInitialiseItem
                0x080092f6       0x1a Middlewares\Third_Party\FreeRTOS\Source\list.o
                0x080092f6                vListInitialiseItem
 .text.vListInsertEnd
                0x08009310       0x48 Middlewares\Third_Party\FreeRTOS\Source\list.o
                0x08009310                vListInsertEnd
 .text.vListInsert
                0x08009358       0x72 Middlewares\Third_Party\FreeRTOS\Source\list.o
                0x08009358                vListInsert
 .text.uxListRemove
                0x080093ca       0x54 Middlewares\Third_Party\FreeRTOS\Source\list.o
                0x080093ca                uxListRemove
 *fill*         0x0800941e        0x2 
 .text.pxPortInitialiseStack
                0x08009420       0x68 Middlewares\Third_Party\FreeRTOS\Source\portable\GCC\ARM_CM4F\port.o
                0x08009420                pxPortInitialiseStack
 .text.prvTaskExitError
                0x08009488       0x3c Middlewares\Third_Party\FreeRTOS\Source\portable\GCC\ARM_CM4F\port.o
 *fill*         0x080094c4        0xc 
 .text.SVC_Handler
                0x080094d0       0x28 Middlewares\Third_Party\FreeRTOS\Source\portable\GCC\ARM_CM4F\port.o
                0x080094d0                SVC_Handler
 .text.prvPortStartFirstTask
                0x080094f8       0x20 Middlewares\Third_Party\FreeRTOS\Source\portable\GCC\ARM_CM4F\port.o
 .text.xPortStartScheduler
                0x08009518      0x118 Middlewares\Third_Party\FreeRTOS\Source\portable\GCC\ARM_CM4F\port.o
                0x08009518                xPortStartScheduler
 .text.vPortEnterCritical
                0x08009630       0x5c Middlewares\Third_Party\FreeRTOS\Source\portable\GCC\ARM_CM4F\port.o
                0x08009630                vPortEnterCritical
 .text.vPortExitCritical
                0x0800968c       0x50 Middlewares\Third_Party\FreeRTOS\Source\portable\GCC\ARM_CM4F\port.o
                0x0800968c                vPortExitCritical
 *fill*         0x080096dc        0x4 
 .text.PendSV_Handler
                0x080096e0       0x68 Middlewares\Third_Party\FreeRTOS\Source\portable\GCC\ARM_CM4F\port.o
                0x080096e0                PendSV_Handler
 .text.xPortSysTickHandler
                0x08009748       0x40 Middlewares\Third_Party\FreeRTOS\Source\portable\GCC\ARM_CM4F\port.o
                0x08009748                xPortSysTickHandler
 .text.vPortSetupTimerInterrupt
                0x08009788       0x38 Middlewares\Third_Party\FreeRTOS\Source\portable\GCC\ARM_CM4F\port.o
                0x08009788                vPortSetupTimerInterrupt
 .text.vPortEnableVFP
                0x080097c0       0x14 Middlewares\Third_Party\FreeRTOS\Source\portable\GCC\ARM_CM4F\port.o
 .text.vPortValidateInterruptPriority
                0x080097d4       0x7c Middlewares\Third_Party\FreeRTOS\Source\portable\GCC\ARM_CM4F\port.o
                0x080097d4                vPortValidateInterruptPriority
 .text.pvPortMalloc
                0x08009850      0x184 Middlewares\Third_Party\FreeRTOS\Source\portable\MemMang\heap_4.o
                0x08009850                pvPortMalloc
 .text.vPortFree
                0x080099d4       0xb0 Middlewares\Third_Party\FreeRTOS\Source\portable\MemMang\heap_4.o
                0x080099d4                vPortFree
 .text.prvHeapInit
                0x08009a84       0xc4 Middlewares\Third_Party\FreeRTOS\Source\portable\MemMang\heap_4.o
 .text.prvInsertBlockIntoFreeList
                0x08009b48       0xb4 Middlewares\Third_Party\FreeRTOS\Source\portable\MemMang\heap_4.o
 .text.xQueueGenericReset
                0x08009bfc       0xd0 Middlewares\Third_Party\FreeRTOS\Source\queue.o
                0x08009bfc                xQueueGenericReset
 .text.xQueueGenericCreate
                0x08009ccc       0x72 Middlewares\Third_Party\FreeRTOS\Source\queue.o
                0x08009ccc                xQueueGenericCreate
 .text.prvInitialiseNewQueue
                0x08009d3e       0x3e Middlewares\Third_Party\FreeRTOS\Source\queue.o
 .text.prvInitialiseMutex
                0x08009d7c       0x34 Middlewares\Third_Party\FreeRTOS\Source\queue.o
 .text.xQueueCreateMutex
                0x08009db0       0x30 Middlewares\Third_Party\FreeRTOS\Source\queue.o
                0x08009db0                xQueueCreateMutex
 .text.xQueueGenericSend
                0x08009de0      0x1f4 Middlewares\Third_Party\FreeRTOS\Source\queue.o
                0x08009de0                xQueueGenericSend
 .text.xQueueGenericReceive
                0x08009fd4      0x224 Middlewares\Third_Party\FreeRTOS\Source\queue.o
                0x08009fd4                xQueueGenericReceive
 .text.prvCopyDataToQueue
                0x0800a1f8       0xd4 Middlewares\Third_Party\FreeRTOS\Source\queue.o
 .text.prvCopyDataFromQueue
                0x0800a2cc       0x4c Middlewares\Third_Party\FreeRTOS\Source\queue.o
 .text.prvUnlockQueue
                0x0800a318       0xa4 Middlewares\Third_Party\FreeRTOS\Source\queue.o
 .text.prvIsQueueEmpty
                0x0800a3bc       0x2c Middlewares\Third_Party\FreeRTOS\Source\queue.o
 .text.prvIsQueueFull
                0x0800a3e8       0x30 Middlewares\Third_Party\FreeRTOS\Source\queue.o
 .text.xTaskCreate
                0x0800a418       0x82 Middlewares\Third_Party\FreeRTOS\Source\tasks.o
                0x0800a418                xTaskCreate
 .text.prvInitialiseNewTask
                0x0800a49a       0xfc Middlewares\Third_Party\FreeRTOS\Source\tasks.o
 *fill*         0x0800a596        0x2 
 .text.prvAddNewTaskToReadyList
                0x0800a598       0xd4 Middlewares\Third_Party\FreeRTOS\Source\tasks.o
 .text.vTaskDelay
                0x0800a66c       0x68 Middlewares\Third_Party\FreeRTOS\Source\tasks.o
                0x0800a66c                vTaskDelay
 .text.vTaskSuspend
                0x0800a6d4      0x110 Middlewares\Third_Party\FreeRTOS\Source\tasks.o
                0x0800a6d4                vTaskSuspend
 .text.prvTaskIsTaskSuspended
                0x0800a7e4       0x74 Middlewares\Third_Party\FreeRTOS\Source\tasks.o
 .text.xTaskResumeFromISR
                0x0800a858       0xe0 Middlewares\Third_Party\FreeRTOS\Source\tasks.o
                0x0800a858                xTaskResumeFromISR
 .text.vTaskStartScheduler
                0x0800a938       0x8c Middlewares\Third_Party\FreeRTOS\Source\tasks.o
                0x0800a938                vTaskStartScheduler
 .text.vTaskSuspendAll
                0x0800a9c4       0x1c Middlewares\Third_Party\FreeRTOS\Source\tasks.o
                0x0800a9c4                vTaskSuspendAll
 .text.xTaskResumeAll
                0x0800a9e0      0x138 Middlewares\Third_Party\FreeRTOS\Source\tasks.o
                0x0800a9e0                xTaskResumeAll
 .text.xTaskIncrementTick
                0x0800ab18      0x178 Middlewares\Third_Party\FreeRTOS\Source\tasks.o
                0x0800ab18                xTaskIncrementTick
 .text.vTaskSwitchContext
                0x0800ac90       0xb4 Middlewares\Third_Party\FreeRTOS\Source\tasks.o
                0x0800ac90                vTaskSwitchContext
 .text.vTaskPlaceOnEventList
                0x0800ad44       0x48 Middlewares\Third_Party\FreeRTOS\Source\tasks.o
                0x0800ad44                vTaskPlaceOnEventList
 .text.xTaskRemoveFromEventList
                0x0800ad8c       0xc4 Middlewares\Third_Party\FreeRTOS\Source\tasks.o
                0x0800ad8c                xTaskRemoveFromEventList
 .text.vTaskSetTimeOutState
                0x0800ae50       0x48 Middlewares\Third_Party\FreeRTOS\Source\tasks.o
                0x0800ae50                vTaskSetTimeOutState
 .text.xTaskCheckForTimeOut
                0x0800ae98       0xbc Middlewares\Third_Party\FreeRTOS\Source\tasks.o
                0x0800ae98                xTaskCheckForTimeOut
 .text.vTaskMissedYield
                0x0800af54       0x18 Middlewares\Third_Party\FreeRTOS\Source\tasks.o
                0x0800af54                vTaskMissedYield
 .text.prvIdleTask
                0x0800af6c       0x30 Middlewares\Third_Party\FreeRTOS\Source\tasks.o
 .text.prvInitialiseTaskLists
                0x0800af9c       0x80 Middlewares\Third_Party\FreeRTOS\Source\tasks.o
 .text.prvCheckTasksWaitingTermination
                0x0800b01c       0x78 Middlewares\Third_Party\FreeRTOS\Source\tasks.o
 .text.prvDeleteTCB
                0x0800b094       0x20 Middlewares\Third_Party\FreeRTOS\Source\tasks.o
 .text.prvResetNextTaskUnblockTime
                0x0800b0b4       0x4c Middlewares\Third_Party\FreeRTOS\Source\tasks.o
 .text.xTaskGetSchedulerState
                0x0800b100       0x3c Middlewares\Third_Party\FreeRTOS\Source\tasks.o
                0x0800b100                xTaskGetSchedulerState
 .text.vTaskPriorityInherit
                0x0800b13c       0xec Middlewares\Third_Party\FreeRTOS\Source\tasks.o
                0x0800b13c                vTaskPriorityInherit
 .text.xTaskPriorityDisinherit
                0x0800b228      0x108 Middlewares\Third_Party\FreeRTOS\Source\tasks.o
                0x0800b228                xTaskPriorityDisinherit
 .text.pvTaskIncrementMutexHeldCount
                0x0800b330       0x28 Middlewares\Third_Party\FreeRTOS\Source\tasks.o
                0x0800b330                pvTaskIncrementMutexHeldCount
 .text.prvAddCurrentTaskToDelayedList
                0x0800b358       0xcc Middlewares\Third_Party\FreeRTOS\Source\tasks.o
 .text.main     0x0800b424      0x2dc Src\main.o
                0x0800b424                main
 .text.SystemClock_Config
                0x0800b700       0xf4 Src\main.o
                0x0800b700                SystemClock_Config
 .text.MX_I2C1_Init
                0x0800b7f4       0x68 Src\main.o
 .text.MX_TIM1_Init
                0x0800b85c       0xa0 Src\main.o
 .text.MX_TIM2_Init
                0x0800b8fc       0x9c Src\main.o
 .text.MX_TIM3_Init
                0x0800b998       0xc8 Src\main.o
 .text.MX_USART2_UART_Init
                0x0800ba60       0x5c Src\main.o
 .text.MX_GPIO_Init
                0x0800babc      0x1d0 Src\main.o
 .text.SetupVL53L1XDevices
                0x0800bc8c       0xec Src\main.o
 .text.StartDefaultTask
                0x0800bd78       0x10 Src\main.o
                0x0800bd78                StartDefaultTask
 .text.tskLASFRONTLEFT_fnc
                0x0800bd88       0x94 Src\main.o
                0x0800bd88                tskLASFRONTLEFT_fnc
 .text.tskLASREARLEFT_fnc
                0x0800be1c       0x94 Src\main.o
                0x0800be1c                tskLASREARLEFT_fnc
 .text.tskLASFRONTRIGHT_fnc
                0x0800beb0       0x94 Src\main.o
                0x0800beb0                tskLASFRONTRIGHT_fnc
 .text.tskEDGLFTFRNT
                0x0800bf44       0x48 Src\main.o
                0x0800bf44                tskEDGLFTFRNT
 .text.tskEDGLFTRER
                0x0800bf8c       0x48 Src\main.o
                0x0800bf8c                tskEDGLFTRER
 .text.tskEDGRGTFRNT
                0x0800bfd4       0x4c Src\main.o
                0x0800bfd4                tskEDGRGTFRNT
 .text.tskEDGRGTRER
                0x0800c020       0x48 Src\main.o
                0x0800c020                tskEDGRGTRER
 .text.rightPWMFunc
                0x0800c068       0x10 Src\main.o
                0x0800c068                rightPWMFunc
 .text.leftPWMFunc
                0x0800c078       0x10 Src\main.o
                0x0800c078                leftPWMFunc
 .text.HAL_TIM_PeriodElapsedCallback
                0x0800c088       0x24 Src\main.o
                0x0800c088                HAL_TIM_PeriodElapsedCallback
 .text._Error_Handler
                0x0800c0ac        0xc Src\main.o
                0x0800c0ac                _Error_Handler
 .text.HAL_MspInit
                0x0800c0b8       0xa4 Src\stm32f4xx_hal_msp.o
                0x0800c0b8                HAL_MspInit
 .text.HAL_I2C_MspInit
                0x0800c15c       0x64 Src\stm32f4xx_hal_msp.o
                0x0800c15c                HAL_I2C_MspInit
 .text.HAL_TIM_Encoder_MspInit
                0x0800c1c0       0xac Src\stm32f4xx_hal_msp.o
                0x0800c1c0                HAL_TIM_Encoder_MspInit
 .text.HAL_TIM_PWM_MspInit
                0x0800c26c       0x44 Src\stm32f4xx_hal_msp.o
                0x0800c26c                HAL_TIM_PWM_MspInit
 .text.HAL_TIM_MspPostInit
                0x0800c2b0       0x64 Src\stm32f4xx_hal_msp.o
                0x0800c2b0                HAL_TIM_MspPostInit
 .text.HAL_UART_MspInit
                0x0800c314       0x64 Src\stm32f4xx_hal_msp.o
                0x0800c314                HAL_UART_MspInit
 .text.HAL_InitTick
                0x0800c378       0xb4 Src\stm32f4xx_hal_timebase_TIM.o
                0x0800c378                HAL_InitTick
 .text.SysTick_Handler
                0x0800c42c        0xc Src\stm32f4xx_it.o
                0x0800c42c                SysTick_Handler
 .text.EXTI0_IRQHandler
                0x0800c438       0x40 Src\stm32f4xx_it.o
                0x0800c438                EXTI0_IRQHandler
 .text.EXTI2_IRQHandler
                0x0800c478       0x40 Src\stm32f4xx_it.o
                0x0800c478                EXTI2_IRQHandler
 .text.EXTI3_IRQHandler
                0x0800c4b8       0x40 Src\stm32f4xx_it.o
                0x0800c4b8                EXTI3_IRQHandler
 .text.EXTI4_IRQHandler
                0x0800c4f8       0x40 Src\stm32f4xx_it.o
                0x0800c4f8                EXTI4_IRQHandler
 .text.TIM4_IRQHandler
                0x0800c538       0x14 Src\stm32f4xx_it.o
                0x0800c538                TIM4_IRQHandler
 .text.SystemInit
                0x0800c54c       0x6c Src\system_stm32f4xx.o
                0x0800c54c                SystemInit
 .text.Reset_Handler
                0x0800c5b8       0x50 startup\startup_stm32f401xe.o
                0x0800c5b8                Reset_Handler
 .text.Default_Handler
                0x0800c608        0x2 startup\startup_stm32f401xe.o
                0x0800c608                RTC_Alarm_IRQHandler
                0x0800c608                DebugMon_Handler
                0x0800c608                SPI4_IRQHandler
                0x0800c608                TIM1_CC_IRQHandler
                0x0800c608                DMA2_Stream5_IRQHandler
                0x0800c608                HardFault_Handler
                0x0800c608                DMA1_Stream5_IRQHandler
                0x0800c608                PVD_IRQHandler
                0x0800c608                SDIO_IRQHandler
                0x0800c608                TAMP_STAMP_IRQHandler
                0x0800c608                NMI_Handler
                0x0800c608                TIM1_UP_TIM10_IRQHandler
                0x0800c608                I2C3_ER_IRQHandler
                0x0800c608                I2C2_EV_IRQHandler
                0x0800c608                DMA1_Stream2_IRQHandler
                0x0800c608                FPU_IRQHandler
                0x0800c608                UsageFault_Handler
                0x0800c608                DMA2_Stream2_IRQHandler
                0x0800c608                SPI1_IRQHandler
                0x0800c608                TIM1_BRK_TIM9_IRQHandler
                0x0800c608                DMA2_Stream3_IRQHandler
                0x0800c608                USART6_IRQHandler
                0x0800c608                DMA2_Stream0_IRQHandler
                0x0800c608                I2C1_EV_IRQHandler
                0x0800c608                DMA1_Stream6_IRQHandler
                0x0800c608                DMA1_Stream1_IRQHandler
                0x0800c608                TIM3_IRQHandler
                0x0800c608                RCC_IRQHandler
                0x0800c608                Default_Handler
                0x0800c608                EXTI15_10_IRQHandler
                0x0800c608                ADC_IRQHandler
                0x0800c608                DMA1_Stream7_IRQHandler
                0x0800c608                TIM5_IRQHandler
                0x0800c608                DMA2_Stream7_IRQHandler
                0x0800c608                I2C3_EV_IRQHandler
                0x0800c608                EXTI9_5_IRQHandler
                0x0800c608                RTC_WKUP_IRQHandler
                0x0800c608                SPI2_IRQHandler
                0x0800c608                MemManage_Handler
                0x0800c608                DMA1_Stream0_IRQHandler
                0x0800c608                WWDG_IRQHandler
                0x0800c608                TIM2_IRQHandler
                0x0800c608                OTG_FS_WKUP_IRQHandler
                0x0800c608                TIM1_TRG_COM_TIM11_IRQHandler
                0x0800c608                EXTI1_IRQHandler
                0x0800c608                USART2_IRQHandler
                0x0800c608                I2C2_ER_IRQHandler
                0x0800c608                DMA2_Stream1_IRQHandler
                0x0800c608                FLASH_IRQHandler
                0x0800c608                DMA2_Stream4_IRQHandler
                0x0800c608                BusFault_Handler
                0x0800c608                USART1_IRQHandler
                0x0800c608                OTG_FS_IRQHandler
                0x0800c608                SPI3_IRQHandler
                0x0800c608                DMA1_Stream4_IRQHandler
                0x0800c608                I2C1_ER_IRQHandler
                0x0800c608                DMA2_Stream6_IRQHandler
                0x0800c608                DMA1_Stream3_IRQHandler
 *fill*         0x0800c60a        0x2 
 .text.__libc_init_array
                0x0800c60c       0x48 c:/program files (x86)/atollic/truestudio for stm32 9.0.1/armtools/bin/../lib/gcc/arm-atollic-eabi/6.3.1/../../../../arm-atollic-eabi/lib/armv7e-m/fpu\libc_nano.a(lib_a-init.o)
                0x0800c60c                __libc_init_array
 .text.memcpy   0x0800c654       0x16 c:/program files (x86)/atollic/truestudio for stm32 9.0.1/armtools/bin/../lib/gcc/arm-atollic-eabi/6.3.1/../../../../arm-atollic-eabi/lib/armv7e-m/fpu\libc_nano.a(lib_a-memcpy-stub.o)
                0x0800c654                memcpy
 .text.memset   0x0800c66a       0x10 c:/program files (x86)/atollic/truestudio for stm32 9.0.1/armtools/bin/../lib/gcc/arm-atollic-eabi/6.3.1/../../../../arm-atollic-eabi/lib/armv7e-m/fpu\libc_nano.a(lib_a-memset.o)
                0x0800c66a                memset
 *fill*         0x0800c67a        0x2 
 .text.sprintf  0x0800c67c       0x48 c:/program files (x86)/atollic/truestudio for stm32 9.0.1/armtools/bin/../lib/gcc/arm-atollic-eabi/6.3.1/../../../../arm-atollic-eabi/lib/armv7e-m/fpu\libc_nano.a(lib_a-sprintf.o)
                0x0800c67c                siprintf
                0x0800c67c                sprintf
 .text.strncpy  0x0800c6c4       0x2a c:/program files (x86)/atollic/truestudio for stm32 9.0.1/armtools/bin/../lib/gcc/arm-atollic-eabi/6.3.1/../../../../arm-atollic-eabi/lib/armv7e-m/fpu\libc_nano.a(lib_a-strncpy.o)
                0x0800c6c4                strncpy
 .text.__ssputs_r
                0x0800c6ee       0xb6 c:/program files (x86)/atollic/truestudio for stm32 9.0.1/armtools/bin/../lib/gcc/arm-atollic-eabi/6.3.1/../../../../arm-atollic-eabi/lib/armv7e-m/fpu\libc_nano.a(lib_a-nano-svfprintf.o)
                0x0800c6ee                __ssputs_r
 .text._svfprintf_r
                0x0800c7a4      0x1e8 c:/program files (x86)/atollic/truestudio for stm32 9.0.1/armtools/bin/../lib/gcc/arm-atollic-eabi/6.3.1/../../../../arm-atollic-eabi/lib/armv7e-m/fpu\libc_nano.a(lib_a-nano-svfprintf.o)
                0x0800c7a4                _svfiprintf_r
                0x0800c7a4                _svfprintf_r
 .text._printf_common
                0x0800c98c       0xec c:/program files (x86)/atollic/truestudio for stm32 9.0.1/armtools/bin/../lib/gcc/arm-atollic-eabi/6.3.1/../../../../arm-atollic-eabi/lib/armv7e-m/fpu\libc_nano.a(lib_a-nano-vfprintf_i.o)
                0x0800c98c                _printf_common
 .text._printf_i
                0x0800ca78      0x240 c:/program files (x86)/atollic/truestudio for stm32 9.0.1/armtools/bin/../lib/gcc/arm-atollic-eabi/6.3.1/../../../../arm-atollic-eabi/lib/armv7e-m/fpu\libc_nano.a(lib_a-nano-vfprintf_i.o)
                0x0800ca78                _printf_i
 .text.memmove  0x0800ccb8       0x34 c:/program files (x86)/atollic/truestudio for stm32 9.0.1/armtools/bin/../lib/gcc/arm-atollic-eabi/6.3.1/../../../../arm-atollic-eabi/lib/armv7e-m/fpu\libc_nano.a(lib_a-memmove.o)
                0x0800ccb8                memmove
 .text._free_r  0x0800ccec       0x9c c:/program files (x86)/atollic/truestudio for stm32 9.0.1/armtools/bin/../lib/gcc/arm-atollic-eabi/6.3.1/../../../../arm-atollic-eabi/lib/armv7e-m/fpu\libc_nano.a(lib_a-nano-freer.o)
                0x0800ccec                _free_r
 .text._malloc_r
                0x0800cd88       0xbc c:/program files (x86)/atollic/truestudio for stm32 9.0.1/armtools/bin/../lib/gcc/arm-atollic-eabi/6.3.1/../../../../arm-atollic-eabi/lib/armv7e-m/fpu\libc_nano.a(lib_a-nano-mallocr.o)
                0x0800cd88                _malloc_r
 .text._realloc_r
                0x0800ce44       0x4c c:/program files (x86)/atollic/truestudio for stm32 9.0.1/armtools/bin/../lib/gcc/arm-atollic-eabi/6.3.1/../../../../arm-atollic-eabi/lib/armv7e-m/fpu\libc_nano.a(lib_a-nano-reallocr.o)
                0x0800ce44                _realloc_r
 .text._sbrk_r  0x0800ce90       0x20 c:/program files (x86)/atollic/truestudio for stm32 9.0.1/armtools/bin/../lib/gcc/arm-atollic-eabi/6.3.1/../../../../arm-atollic-eabi/lib/armv7e-m/fpu\libc_nano.a(lib_a-sbrkr.o)
                0x0800ce90                _sbrk_r
 .text.__malloc_lock
                0x0800ceb0        0x2 c:/program files (x86)/atollic/truestudio for stm32 9.0.1/armtools/bin/../lib/gcc/arm-atollic-eabi/6.3.1/../../../../arm-atollic-eabi/lib/armv7e-m/fpu\libc_nano.a(lib_a-mlock.o)
                0x0800ceb0                __malloc_lock
 .text.__malloc_unlock
                0x0800ceb2        0x2 c:/program files (x86)/atollic/truestudio for stm32 9.0.1/armtools/bin/../lib/gcc/arm-atollic-eabi/6.3.1/../../../../arm-atollic-eabi/lib/armv7e-m/fpu\libc_nano.a(lib_a-mlock.o)
                0x0800ceb2                __malloc_unlock
 .text._malloc_usable_size_r
                0x0800ceb4       0x12 c:/program files (x86)/atollic/truestudio for stm32 9.0.1/armtools/bin/../lib/gcc/arm-atollic-eabi/6.3.1/../../../../arm-atollic-eabi/lib/armv7e-m/fpu\libc_nano.a(lib_a-nano-msizer.o)
                0x0800ceb4                _malloc_usable_size_r
 *fill*         0x0800cec6        0x2 
 .text._sbrk    0x0800cec8       0x1c c:/program files (x86)/atollic/truestudio for stm32 9.0.1/armtools/bin/../lib/gcc/arm-atollic-eabi/6.3.1/../../../../arm-atollic-eabi/lib/armv7e-m/fpu\libnosys.a(sbrk.o)
                0x0800cec8                _sbrk
 *(.glue_7)
 .glue_7        0x0800cee4        0x0 linker stubs
 *(.glue_7t)
 .glue_7t       0x0800cee4        0x0 linker stubs
 *(.eh_frame)
 .eh_frame      0x0800cee4        0x0 c:/program files (x86)/atollic/truestudio for stm32 9.0.1/armtools/bin/../lib/gcc/arm-atollic-eabi/6.3.1/armv7e-m/fpu/crtbegin.o
 *(.init)
 .init          0x0800cee4        0x4 c:/program files (x86)/atollic/truestudio for stm32 9.0.1/armtools/bin/../lib/gcc/arm-atollic-eabi/6.3.1/armv7e-m/fpu/crti.o
                0x0800cee4                _init
 .init          0x0800cee8        0x8 c:/program files (x86)/atollic/truestudio for stm32 9.0.1/armtools/bin/../lib/gcc/arm-atollic-eabi/6.3.1/armv7e-m/fpu/crtn.o
 *(.fini)
 .fini          0x0800cef0        0x4 c:/program files (x86)/atollic/truestudio for stm32 9.0.1/armtools/bin/../lib/gcc/arm-atollic-eabi/6.3.1/armv7e-m/fpu/crti.o
                0x0800cef0                _fini
 .fini          0x0800cef4        0x8 c:/program files (x86)/atollic/truestudio for stm32 9.0.1/armtools/bin/../lib/gcc/arm-atollic-eabi/6.3.1/armv7e-m/fpu/crtn.o
                0x0800cefc                . = ALIGN (0x4)
                0x0800cefc                _etext = .

.vfp11_veneer   0x0800cefc        0x0
 .vfp11_veneer  0x0800cefc        0x0 linker stubs

.v4_bx          0x0800cefc        0x0
 .v4_bx         0x0800cefc        0x0 linker stubs

.iplt           0x0800cefc        0x0
 .iplt          0x0800cefc        0x0 c:/program files (x86)/atollic/truestudio for stm32 9.0.1/armtools/bin/../lib/gcc/arm-atollic-eabi/6.3.1/armv7e-m/fpu/crtbegin.o

.rodata         0x0800cefc      0x2b4
                0x0800cefc                . = ALIGN (0x4)
 *(.rodata)
 .rodata        0x0800cefc       0x3a Drivers\BSP\VL53L1X API\api\core\vl53l1_api.o
 *fill*         0x0800cf36        0x2 
 .rodata        0x0800cf38        0x1 Drivers\BSP\VL53L1X API\api\platform\vl53l1_platform.o
 *fill*         0x0800cf39        0x3 
 .rodata        0x0800cf3c        0x5 Middlewares\Third_Party\FreeRTOS\Source\tasks.o
 *fill*         0x0800cf41        0x3 
 .rodata        0x0800cf44      0x21e Src\main.o
 *(.rodata*)
 *fill*         0x0800d162        0x2 
 .rodata.AHBPrescTable
                0x0800d164       0x10 Src\system_stm32f4xx.o
                0x0800d164                AHBPrescTable
 .rodata.APBPrescTable
                0x0800d174        0x8 Src\system_stm32f4xx.o
                0x0800d174                APBPrescTable
 .rodata._svfprintf_r.str1.1
                0x0800d17c       0x11 c:/program files (x86)/atollic/truestudio for stm32 9.0.1/armtools/bin/../lib/gcc/arm-atollic-eabi/6.3.1/../../../../arm-atollic-eabi/lib/armv7e-m/fpu\libc_nano.a(lib_a-nano-svfprintf.o)
 .rodata._printf_i.str1.1
                0x0800d18d       0x22 c:/program files (x86)/atollic/truestudio for stm32 9.0.1/armtools/bin/../lib/gcc/arm-atollic-eabi/6.3.1/../../../../arm-atollic-eabi/lib/armv7e-m/fpu\libc_nano.a(lib_a-nano-vfprintf_i.o)
                0x0800d1b0                . = ALIGN (0x4)
 *fill*         0x0800d1af        0x1 

.ARM.extab
 *(.ARM.extab* .gnu.linkonce.armextab.*)

.ARM            0x0800d1b0        0x8
                0x0800d1b0                __exidx_start = .
 *(.ARM.exidx*)
 .ARM.exidx     0x0800d1b0        0x8 c:/program files (x86)/atollic/truestudio for stm32 9.0.1/armtools/bin/../lib/gcc/arm-atollic-eabi/6.3.1/armv7e-m/fpu\libgcc.a(_udivmoddi4.o)
                0x0800d1b8                __exidx_end = .

.rel.dyn        0x0800d1b8        0x0
 .rel.iplt      0x0800d1b8        0x0 c:/program files (x86)/atollic/truestudio for stm32 9.0.1/armtools/bin/../lib/gcc/arm-atollic-eabi/6.3.1/armv7e-m/fpu/crtbegin.o

.preinit_array  0x0800d1b8        0x0
                0x0800d1b8                PROVIDE (__preinit_array_start, .)
 *(.preinit_array*)
                0x0800d1b8                PROVIDE (__preinit_array_end, .)

.init_array     0x0800d1b8        0x4
                0x0800d1b8                PROVIDE (__init_array_start, .)
 *(SORT(.init_array.*))
 *(.init_array*)
 .init_array    0x0800d1b8        0x4 c:/program files (x86)/atollic/truestudio for stm32 9.0.1/armtools/bin/../lib/gcc/arm-atollic-eabi/6.3.1/armv7e-m/fpu/crtbegin.o
                0x0800d1bc                PROVIDE (__init_array_end, .)

.fini_array     0x0800d1bc        0x4
                [!provide]                PROVIDE (__fini_array_start, .)
 *(SORT(.fini_array.*))
 *(.fini_array*)
 .fini_array    0x0800d1bc        0x4 c:/program files (x86)/atollic/truestudio for stm32 9.0.1/armtools/bin/../lib/gcc/arm-atollic-eabi/6.3.1/armv7e-m/fpu/crtbegin.o
                [!provide]                PROVIDE (__fini_array_end, .)
                0x0800d1c0                _sidata = LOADADDR (.data)

.data           0x20000000       0xa0 load address 0x0800d1c0
                0x20000000                . = ALIGN (0x4)
                0x20000000                _sdata = .
 *(.data)
 *(.data*)
 .data.BDTable  0x20000000       0x20 Drivers\BSP\VL53L1X API\api\core\vl53l1_api.o
 .data.uwTickFreq
                0x20000020        0x1 Drivers\STM32F4xx_HAL_Driver\Src\stm32f4xx_hal.o
                0x20000020                uwTickFreq
 *fill*         0x20000021        0x3 
 .data.uxCriticalNesting
                0x20000024        0x4 Middlewares\Third_Party\FreeRTOS\Source\portable\GCC\ARM_CM4F\port.o
 .data.LASER_FRONT_LEFT_DEV
                0x20000028        0x4 Src\main.o
                0x20000028                LASER_FRONT_LEFT_DEV
 .data.LASER_FRONT_RIGHT_DEV
                0x2000002c        0x4 Src\main.o
                0x2000002c                LASER_FRONT_RIGHT_DEV
 .data.LASER_REAR_LEFT_DEV
                0x20000030        0x4 Src\main.o
                0x20000030                LASER_REAR_LEFT_DEV
 .data.LeftMotorPIDHandle
                0x20000034        0x4 Src\main.o
                0x20000034                LeftMotorPIDHandle
 .data.SystemCoreClock
                0x20000038        0x4 Src\system_stm32f4xx.o
                0x20000038                SystemCoreClock
 .data._impure_ptr
                0x2000003c        0x4 c:/program files (x86)/atollic/truestudio for stm32 9.0.1/armtools/bin/../lib/gcc/arm-atollic-eabi/6.3.1/../../../../arm-atollic-eabi/lib/armv7e-m/fpu\libc_nano.a(lib_a-impure.o)
                0x2000003c                _impure_ptr
 .data.impure_data
                0x20000040       0x60 c:/program files (x86)/atollic/truestudio for stm32 9.0.1/armtools/bin/../lib/gcc/arm-atollic-eabi/6.3.1/../../../../arm-atollic-eabi/lib/armv7e-m/fpu\libc_nano.a(lib_a-impure.o)
                0x200000a0                . = ALIGN (0x4)
                0x200000a0                _edata = .

.igot.plt       0x200000a0        0x0 load address 0x0800d260
 .igot.plt      0x200000a0        0x0 c:/program files (x86)/atollic/truestudio for stm32 9.0.1/armtools/bin/../lib/gcc/arm-atollic-eabi/6.3.1/armv7e-m/fpu/crtbegin.o
                0x200000a0                . = ALIGN (0x4)

.bss            0x200000a0     0x6980 load address 0x0800d260
                0x200000a0                _sbss = .
                0x200000a0                __bss_start__ = _sbss
 *(.bss)
 .bss           0x200000a0       0x1c c:/program files (x86)/atollic/truestudio for stm32 9.0.1/armtools/bin/../lib/gcc/arm-atollic-eabi/6.3.1/armv7e-m/fpu/crtbegin.o
 *(.bss*)
 .bss.ucMaxSysCallPriority
                0x200000bc        0x1 Middlewares\Third_Party\FreeRTOS\Source\portable\GCC\ARM_CM4F\port.o
 *fill*         0x200000bd        0x3 
 .bss.ulMaxPRIGROUPValue
                0x200000c0        0x4 Middlewares\Third_Party\FreeRTOS\Source\portable\GCC\ARM_CM4F\port.o
 .bss.ucHeap    0x200000c4     0x3c00 Middlewares\Third_Party\FreeRTOS\Source\portable\MemMang\heap_4.o
 .bss.xStart    0x20003cc4        0x8 Middlewares\Third_Party\FreeRTOS\Source\portable\MemMang\heap_4.o
 .bss.pxEnd     0x20003ccc        0x4 Middlewares\Third_Party\FreeRTOS\Source\portable\MemMang\heap_4.o
 .bss.xFreeBytesRemaining
                0x20003cd0        0x4 Middlewares\Third_Party\FreeRTOS\Source\portable\MemMang\heap_4.o
 .bss.xMinimumEverFreeBytesRemaining
                0x20003cd4        0x4 Middlewares\Third_Party\FreeRTOS\Source\portable\MemMang\heap_4.o
 .bss.xBlockAllocatedBit
                0x20003cd8        0x4 Middlewares\Third_Party\FreeRTOS\Source\portable\MemMang\heap_4.o
 .bss.pxCurrentTCB
                0x20003cdc        0x4 Middlewares\Third_Party\FreeRTOS\Source\tasks.o
                0x20003cdc                pxCurrentTCB
 .bss.pxReadyTasksLists
                0x20003ce0       0x8c Middlewares\Third_Party\FreeRTOS\Source\tasks.o
 .bss.xDelayedTaskList1
                0x20003d6c       0x14 Middlewares\Third_Party\FreeRTOS\Source\tasks.o
 .bss.xDelayedTaskList2
                0x20003d80       0x14 Middlewares\Third_Party\FreeRTOS\Source\tasks.o
 .bss.pxDelayedTaskList
                0x20003d94        0x4 Middlewares\Third_Party\FreeRTOS\Source\tasks.o
 .bss.pxOverflowDelayedTaskList
                0x20003d98        0x4 Middlewares\Third_Party\FreeRTOS\Source\tasks.o
 .bss.xPendingReadyList
                0x20003d9c       0x14 Middlewares\Third_Party\FreeRTOS\Source\tasks.o
 .bss.xTasksWaitingTermination
                0x20003db0       0x14 Middlewares\Third_Party\FreeRTOS\Source\tasks.o
 .bss.uxDeletedTasksWaitingCleanUp
                0x20003dc4        0x4 Middlewares\Third_Party\FreeRTOS\Source\tasks.o
 .bss.xSuspendedTaskList
                0x20003dc8       0x14 Middlewares\Third_Party\FreeRTOS\Source\tasks.o
 .bss.uxCurrentNumberOfTasks
                0x20003ddc        0x4 Middlewares\Third_Party\FreeRTOS\Source\tasks.o
 .bss.xTickCount
                0x20003de0        0x4 Middlewares\Third_Party\FreeRTOS\Source\tasks.o
 .bss.uxTopReadyPriority
                0x20003de4        0x4 Middlewares\Third_Party\FreeRTOS\Source\tasks.o
 .bss.xSchedulerRunning
                0x20003de8        0x4 Middlewares\Third_Party\FreeRTOS\Source\tasks.o
 .bss.uxPendedTicks
                0x20003dec        0x4 Middlewares\Third_Party\FreeRTOS\Source\tasks.o
 .bss.xYieldPending
                0x20003df0        0x4 Middlewares\Third_Party\FreeRTOS\Source\tasks.o
 .bss.xNumOfOverflows
                0x20003df4        0x4 Middlewares\Third_Party\FreeRTOS\Source\tasks.o
 .bss.uxTaskNumber
                0x20003df8        0x4 Middlewares\Third_Party\FreeRTOS\Source\tasks.o
 .bss.xNextTaskUnblockTime
                0x20003dfc        0x4 Middlewares\Third_Party\FreeRTOS\Source\tasks.o
 .bss.xIdleTaskHandle
                0x20003e00        0x4 Middlewares\Third_Party\FreeRTOS\Source\tasks.o
 .bss.uxSchedulerSuspended
                0x20003e04        0x4 Middlewares\Third_Party\FreeRTOS\Source\tasks.o
 .bss.status    0x20003e08        0x4 Src\main.o
 .bss.buffer.11600
                0x20003e0c      0x100 Src\main.o
 .bss.buffer.11605
                0x20003f0c      0x100 Src\main.o
 .bss.buffer.11610
                0x2000400c      0x100 Src\main.o
 .bss.buffer.11615
                0x2000410c      0x100 Src\main.o
 .bss.buffer.11620
                0x2000420c      0x100 Src\main.o
 .bss.buffer.11625
                0x2000430c      0x100 Src\main.o
 .bss.buffer.11630
                0x2000440c      0x100 Src\main.o
 .bss.__malloc_free_list
                0x2000450c        0x4 c:/program files (x86)/atollic/truestudio for stm32 9.0.1/armtools/bin/../lib/gcc/arm-atollic-eabi/6.3.1/../../../../arm-atollic-eabi/lib/armv7e-m/fpu\libc_nano.a(lib_a-nano-mallocr.o)
                0x2000450c                __malloc_free_list
 .bss.__malloc_sbrk_start
                0x20004510        0x4 c:/program files (x86)/atollic/truestudio for stm32 9.0.1/armtools/bin/../lib/gcc/arm-atollic-eabi/6.3.1/../../../../arm-atollic-eabi/lib/armv7e-m/fpu\libc_nano.a(lib_a-nano-mallocr.o)
                0x20004510                __malloc_sbrk_start
 .bss.heap_end.5239
                0x20004514        0x4 c:/program files (x86)/atollic/truestudio for stm32 9.0.1/armtools/bin/../lib/gcc/arm-atollic-eabi/6.3.1/../../../../arm-atollic-eabi/lib/armv7e-m/fpu\libnosys.a(sbrk.o)
 *(COMMON)
 COMMON         0x20004518      0x100 Drivers\BSP\VL53L1X API\api\platform\vl53l1_platform.o
                0x20004518                _I2CBuffer
 COMMON         0x20004618        0x4 Drivers\STM32F4xx_HAL_Driver\Src\stm32f4xx_hal.o
                0x20004618                uwTick
 COMMON         0x2000461c     0x23c4 Src\main.o
                0x2000461c                LASER_REAR_LEFT_dev_t
                0x200049c0                RightMotorPWMConfig
                0x200049dc                RangingDataRearLeft
                0x200049f8                RangingDataLeftFront
                0x20004a14                tskEDGLFTREARHandle
                0x20004a18                tskEDGLFTFRONTHandle
                0x20004a1c                defaultTaskHandle
                0x20004a20                dev
                0x20004dc4                leftPWMHandle
                0x20004dc8                LASER_REAR_RIGHT_dev_t
                0x2000516c                RangingDataLeftRear
                0x20005188                hi2c1
                0x200051dc                LeftMotorPWMConfig
                0x200051f8                LASER_LEFT_FRONT_dev_t
                0x2000559c                tskLASREARLEFTHandle
                0x200055a0                tskLASFRONTRIGHHandle
                0x200055a4                tskEDGRGTFRONTHandle
                0x200055a8                RightMotorPID
                0x200055d8                LASER_FRONT_LEFT_dev_t
                0x2000597c                htim3
                0x200059b8                LASER_FRONT_RIGHT_dev_t
                0x20005d5c                RangingDataRearRight
                0x20005d78                RangingDataRightFront
                0x20005d94                LeftMotorPID
                0x20005dc4                LASER_LEFT_REAR_dev_t
                0x20006168                RangingDataFrontRight
                0x20006184                RangingDataFrontLeft
                0x200061a0                htim1
                0x200061dc                RangingDataRightRear
                0x200061f8                LASER_RIGHT_REAR_dev_t
                0x2000659c                htim2
                0x200065d8                tskEDGRGTREARHandle
                0x200065dc                huart2
                0x2000661c                tskLASFRONTLEFTHandle
                0x20006620                rightPWMHandle
                0x20006624                LASER_RIGHT_FRONT_dev_t
                0x200069c8                myMutex01Handle
                0x200069cc                Detectionconfig
 COMMON         0x200069e0       0x3c Src\stm32f4xx_hal_timebase_TIM.o
                0x200069e0                htim4
 COMMON         0x20006a1c        0x4 c:/program files (x86)/atollic/truestudio for stm32 9.0.1/armtools/bin/../lib/gcc/arm-atollic-eabi/6.3.1/../../../../arm-atollic-eabi/lib/armv7e-m/fpu\libc_nano.a(lib_a-reent.o)
                0x20006a1c                errno
                0x20006a20                . = ALIGN (0x4)
                0x20006a20                _ebss = .
                0x20006a20                __bss_end__ = _ebss

._user_heap_stack
                0x20006a20      0x600 load address 0x0800d260
                0x20006a20                . = ALIGN (0x4)
                0x20006a20                PROVIDE (end, .)
                [!provide]                PROVIDE (_end, .)
                0x20006c20                . = (. + _Min_Heap_Size)
 *fill*         0x20006a20      0x200 
                0x20007020                . = (. + _Min_Stack_Size)
 *fill*         0x20006c20      0x400 
                0x20007020                . = ALIGN (0x4)

/DISCARD/
 libc.a(*)
 libm.a(*)
 libgcc.a(*)

.ARM.attributes
                0x00000000       0x30
 *(.ARM.attributes)
 .ARM.attributes
                0x00000000       0x22 c:/program files (x86)/atollic/truestudio for stm32 9.0.1/armtools/bin/../lib/gcc/arm-atollic-eabi/6.3.1/armv7e-m/fpu/crti.o
 .ARM.attributes
                0x00000022       0x34 c:/program files (x86)/atollic/truestudio for stm32 9.0.1/armtools/bin/../lib/gcc/arm-atollic-eabi/6.3.1/armv7e-m/fpu/crtbegin.o
 .ARM.attributes
                0x00000056       0x39 Drivers\BSP\VL53L1X API\api\core\vl53l1_api.o
 .ARM.attributes
                0x0000008f       0x39 Drivers\BSP\VL53L1X API\api\core\vl53l1_api_core.o
 .ARM.attributes
                0x000000c8       0x39 Drivers\BSP\VL53L1X API\api\core\vl53l1_api_preset_modes.o
 .ARM.attributes
                0x00000101       0x39 Drivers\BSP\VL53L1X API\api\core\vl53l1_core.o
 .ARM.attributes
                0x0000013a       0x39 Drivers\BSP\VL53L1X API\api\core\vl53l1_core_support.o
 .ARM.attributes
                0x00000173       0x39 Drivers\BSP\VL53L1X API\api\core\vl53l1_register_funcs.o
 .ARM.attributes
                0x000001ac       0x39 Drivers\BSP\VL53L1X API\api\core\vl53l1_wait.o
 .ARM.attributes
                0x000001e5       0x39 Drivers\BSP\VL53L1X API\api\platform\vl53l1_platform.o
 .ARM.attributes
                0x0000021e       0x39 Drivers\STM32F4xx_HAL_Driver\Src\stm32f4xx_hal.o
 .ARM.attributes
                0x00000257       0x39 Drivers\STM32F4xx_HAL_Driver\Src\stm32f4xx_hal_cortex.o
 .ARM.attributes
                0x00000290       0x39 Drivers\STM32F4xx_HAL_Driver\Src\stm32f4xx_hal_gpio.o
 .ARM.attributes
                0x000002c9       0x39 Drivers\STM32F4xx_HAL_Driver\Src\stm32f4xx_hal_i2c.o
 .ARM.attributes
                0x00000302       0x39 Drivers\STM32F4xx_HAL_Driver\Src\stm32f4xx_hal_rcc.o
 .ARM.attributes
                0x0000033b       0x39 Drivers\STM32F4xx_HAL_Driver\Src\stm32f4xx_hal_tim.o
 .ARM.attributes
                0x00000374       0x39 Drivers\STM32F4xx_HAL_Driver\Src\stm32f4xx_hal_tim_ex.o
 .ARM.attributes
                0x000003ad       0x39 Drivers\STM32F4xx_HAL_Driver\Src\stm32f4xx_hal_uart.o
 .ARM.attributes
                0x000003e6       0x39 Middlewares\Third_Party\FreeRTOS\Source\CMSIS_RTOS\cmsis_os.o
 .ARM.attributes
                0x0000041f       0x39 Middlewares\Third_Party\FreeRTOS\Source\list.o
 .ARM.attributes
                0x00000458       0x39 Middlewares\Third_Party\FreeRTOS\Source\portable\GCC\ARM_CM4F\port.o
 .ARM.attributes
                0x00000491       0x39 Middlewares\Third_Party\FreeRTOS\Source\portable\MemMang\heap_4.o
 .ARM.attributes
                0x000004ca       0x39 Middlewares\Third_Party\FreeRTOS\Source\queue.o
 .ARM.attributes
                0x00000503       0x39 Middlewares\Third_Party\FreeRTOS\Source\tasks.o
 .ARM.attributes
                0x0000053c       0x39 Src\main.o
 .ARM.attributes
                0x00000575       0x39 Src\stm32f4xx_hal_msp.o
 .ARM.attributes
                0x000005ae       0x39 Src\stm32f4xx_hal_timebase_TIM.o
 .ARM.attributes
                0x000005e7       0x39 Src\stm32f4xx_it.o
 .ARM.attributes
                0x00000620       0x39 Src\system_stm32f4xx.o
 .ARM.attributes
                0x00000659       0x21 startup\startup_stm32f401xe.o
 .ARM.attributes
                0x0000067a       0x34 c:/program files (x86)/atollic/truestudio for stm32 9.0.1/armtools/bin/../lib/gcc/arm-atollic-eabi/6.3.1/../../../../arm-atollic-eabi/lib/armv7e-m/fpu\libc_nano.a(lib_a-init.o)
 .ARM.attributes
                0x000006ae       0x34 c:/program files (x86)/atollic/truestudio for stm32 9.0.1/armtools/bin/../lib/gcc/arm-atollic-eabi/6.3.1/../../../../arm-atollic-eabi/lib/armv7e-m/fpu\libc_nano.a(lib_a-memcpy-stub.o)
 .ARM.attributes
                0x000006e2       0x34 c:/program files (x86)/atollic/truestudio for stm32 9.0.1/armtools/bin/../lib/gcc/arm-atollic-eabi/6.3.1/../../../../arm-atollic-eabi/lib/armv7e-m/fpu\libc_nano.a(lib_a-memset.o)
 .ARM.attributes
                0x00000716       0x34 c:/program files (x86)/atollic/truestudio for stm32 9.0.1/armtools/bin/../lib/gcc/arm-atollic-eabi/6.3.1/../../../../arm-atollic-eabi/lib/armv7e-m/fpu\libc_nano.a(lib_a-sprintf.o)
 .ARM.attributes
                0x0000074a       0x1b c:/program files (x86)/atollic/truestudio for stm32 9.0.1/armtools/bin/../lib/gcc/arm-atollic-eabi/6.3.1/../../../../arm-atollic-eabi/lib/armv7e-m/fpu\libc_nano.a(lib_a-strlen.o)
 .ARM.attributes
                0x00000765       0x34 c:/program files (x86)/atollic/truestudio for stm32 9.0.1/armtools/bin/../lib/gcc/arm-atollic-eabi/6.3.1/../../../../arm-atollic-eabi/lib/armv7e-m/fpu\libc_nano.a(lib_a-strncpy.o)
 .ARM.attributes
                0x00000799       0x34 c:/program files (x86)/atollic/truestudio for stm32 9.0.1/armtools/bin/../lib/gcc/arm-atollic-eabi/6.3.1/../../../../arm-atollic-eabi/lib/armv7e-m/fpu\libc_nano.a(lib_a-impure.o)
 .ARM.attributes
                0x000007cd       0x34 c:/program files (x86)/atollic/truestudio for stm32 9.0.1/armtools/bin/../lib/gcc/arm-atollic-eabi/6.3.1/../../../../arm-atollic-eabi/lib/armv7e-m/fpu\libc_nano.a(lib_a-nano-svfprintf.o)
 .ARM.attributes
                0x00000801       0x34 c:/program files (x86)/atollic/truestudio for stm32 9.0.1/armtools/bin/../lib/gcc/arm-atollic-eabi/6.3.1/../../../../arm-atollic-eabi/lib/armv7e-m/fpu\libc_nano.a(lib_a-nano-vfprintf_i.o)
 .ARM.attributes
                0x00000835       0x20 c:/program files (x86)/atollic/truestudio for stm32 9.0.1/armtools/bin/../lib/gcc/arm-atollic-eabi/6.3.1/../../../../arm-atollic-eabi/lib/armv7e-m/fpu\libc_nano.a(lib_a-memchr.o)
 .ARM.attributes
                0x00000855       0x34 c:/program files (x86)/atollic/truestudio for stm32 9.0.1/armtools/bin/../lib/gcc/arm-atollic-eabi/6.3.1/../../../../arm-atollic-eabi/lib/armv7e-m/fpu\libc_nano.a(lib_a-memmove.o)
 .ARM.attributes
                0x00000889       0x34 c:/program files (x86)/atollic/truestudio for stm32 9.0.1/armtools/bin/../lib/gcc/arm-atollic-eabi/6.3.1/../../../../arm-atollic-eabi/lib/armv7e-m/fpu\libc_nano.a(lib_a-nano-freer.o)
 .ARM.attributes
                0x000008bd       0x34 c:/program files (x86)/atollic/truestudio for stm32 9.0.1/armtools/bin/../lib/gcc/arm-atollic-eabi/6.3.1/../../../../arm-atollic-eabi/lib/armv7e-m/fpu\libc_nano.a(lib_a-nano-mallocr.o)
 .ARM.attributes
                0x000008f1       0x34 c:/program files (x86)/atollic/truestudio for stm32 9.0.1/armtools/bin/../lib/gcc/arm-atollic-eabi/6.3.1/../../../../arm-atollic-eabi/lib/armv7e-m/fpu\libc_nano.a(lib_a-nano-reallocr.o)
 .ARM.attributes
                0x00000925       0x34 c:/program files (x86)/atollic/truestudio for stm32 9.0.1/armtools/bin/../lib/gcc/arm-atollic-eabi/6.3.1/../../../../arm-atollic-eabi/lib/armv7e-m/fpu\libc_nano.a(lib_a-sbrkr.o)
 .ARM.attributes
                0x00000959       0x34 c:/program files (x86)/atollic/truestudio for stm32 9.0.1/armtools/bin/../lib/gcc/arm-atollic-eabi/6.3.1/../../../../arm-atollic-eabi/lib/armv7e-m/fpu\libc_nano.a(lib_a-mlock.o)
 .ARM.attributes
                0x0000098d       0x34 c:/program files (x86)/atollic/truestudio for stm32 9.0.1/armtools/bin/../lib/gcc/arm-atollic-eabi/6.3.1/../../../../arm-atollic-eabi/lib/armv7e-m/fpu\libc_nano.a(lib_a-nano-msizer.o)
 .ARM.attributes
                0x000009c1       0x34 c:/program files (x86)/atollic/truestudio for stm32 9.0.1/armtools/bin/../lib/gcc/arm-atollic-eabi/6.3.1/../../../../arm-atollic-eabi/lib/armv7e-m/fpu\libc_nano.a(lib_a-reent.o)
 .ARM.attributes
                0x000009f5       0x22 c:/program files (x86)/atollic/truestudio for stm32 9.0.1/armtools/bin/../lib/gcc/arm-atollic-eabi/6.3.1/armv7e-m/fpu\libgcc.a(_aeabi_uldivmod.o)
 .ARM.attributes
                0x00000a17       0x34 c:/program files (x86)/atollic/truestudio for stm32 9.0.1/armtools/bin/../lib/gcc/arm-atollic-eabi/6.3.1/armv7e-m/fpu\libgcc.a(_udivmoddi4.o)
 .ARM.attributes
                0x00000a4b       0x22 c:/program files (x86)/atollic/truestudio for stm32 9.0.1/armtools/bin/../lib/gcc/arm-atollic-eabi/6.3.1/armv7e-m/fpu\libgcc.a(_dvmd_tls.o)
 .ARM.attributes
                0x00000a6d       0x34 c:/program files (x86)/atollic/truestudio for stm32 9.0.1/armtools/bin/../lib/gcc/arm-atollic-eabi/6.3.1/../../../../arm-atollic-eabi/lib/armv7e-m/fpu\libnosys.a(sbrk.o)
 .ARM.attributes
                0x00000aa1       0x22 c:/program files (x86)/atollic/truestudio for stm32 9.0.1/armtools/bin/../lib/gcc/arm-atollic-eabi/6.3.1/armv7e-m/fpu/crtn.o
OUTPUT(VL53L1X_SUMO.elf elf32-littlearm)

.debug_info     0x00000000    0x34276
 .debug_info    0x00000000     0x4af6 Drivers\BSP\VL53L1X API\api\core\vl53l1_api.o
 .debug_info    0x00004af6     0x4066 Drivers\BSP\VL53L1X API\api\core\vl53l1_api_core.o
 .debug_info    0x00008b5c     0x1bd3 Drivers\BSP\VL53L1X API\api\core\vl53l1_api_preset_modes.o
 .debug_info    0x0000a72f     0x3e9d Drivers\BSP\VL53L1X API\api\core\vl53l1_core.o
 .debug_info    0x0000e5cc      0xa05 Drivers\BSP\VL53L1X API\api\core\vl53l1_core_support.o
 .debug_info    0x0000efd1     0x31f9 Drivers\BSP\VL53L1X API\api\core\vl53l1_register_funcs.o
 .debug_info    0x000121ca     0x2cca Drivers\BSP\VL53L1X API\api\core\vl53l1_wait.o
 .debug_info    0x00014e94     0x2f66 Drivers\BSP\VL53L1X API\api\platform\vl53l1_platform.o
 .debug_info    0x00017dfa     0x10ac Drivers\STM32F4xx_HAL_Driver\Src\stm32f4xx_hal.o
 .debug_info    0x00018ea6     0x154c Drivers\STM32F4xx_HAL_Driver\Src\stm32f4xx_hal_cortex.o
 .debug_info    0x0001a3f2      0xf9d Drivers\STM32F4xx_HAL_Driver\Src\stm32f4xx_hal_gpio.o
 .debug_info    0x0001b38f     0x2889 Drivers\STM32F4xx_HAL_Driver\Src\stm32f4xx_hal_i2c.o
 .debug_info    0x0001dc18     0x10e0 Drivers\STM32F4xx_HAL_Driver\Src\stm32f4xx_hal_rcc.o
 .debug_info    0x0001ecf8     0x29f0 Drivers\STM32F4xx_HAL_Driver\Src\stm32f4xx_hal_tim.o
 .debug_info    0x000216e8     0x17ca Drivers\STM32F4xx_HAL_Driver\Src\stm32f4xx_hal_tim_ex.o
 .debug_info    0x00022eb2     0x19d5 Drivers\STM32F4xx_HAL_Driver\Src\stm32f4xx_hal_uart.o
 .debug_info    0x00024887     0x1af1 Middlewares\Third_Party\FreeRTOS\Source\CMSIS_RTOS\cmsis_os.o
 .debug_info    0x00026378      0xac3 Middlewares\Third_Party\FreeRTOS\Source\list.o
 .debug_info    0x00026e3b      0x50b Middlewares\Third_Party\FreeRTOS\Source\portable\GCC\ARM_CM4F\port.o
 .debug_info    0x00027346      0xbed Middlewares\Third_Party\FreeRTOS\Source\portable\MemMang\heap_4.o
 .debug_info    0x00027f33     0x19ab Middlewares\Third_Party\FreeRTOS\Source\queue.o
 .debug_info    0x000298de     0x20b5 Middlewares\Third_Party\FreeRTOS\Source\tasks.o
 .debug_info    0x0002b993     0x4075 Src\main.o
 .debug_info    0x0002fa08     0x1915 Src\stm32f4xx_hal_msp.o
 .debug_info    0x0003131d     0x1279 Src\stm32f4xx_hal_timebase_TIM.o
 .debug_info    0x00032596      0xf00 Src\stm32f4xx_it.o
 .debug_info    0x00033496      0xd41 Src\system_stm32f4xx.o
 .debug_info    0x000341d7       0x9f startup\startup_stm32f401xe.o

.debug_abbrev   0x00000000     0x43fc
 .debug_abbrev  0x00000000      0x2d3 Drivers\BSP\VL53L1X API\api\core\vl53l1_api.o
 .debug_abbrev  0x000002d3      0x283 Drivers\BSP\VL53L1X API\api\core\vl53l1_api_core.o
 .debug_abbrev  0x00000556      0x219 Drivers\BSP\VL53L1X API\api\core\vl53l1_api_preset_modes.o
 .debug_abbrev  0x0000076f      0x2da Drivers\BSP\VL53L1X API\api\core\vl53l1_core.o
 .debug_abbrev  0x00000a49      0x1ec Drivers\BSP\VL53L1X API\api\core\vl53l1_core_support.o
 .debug_abbrev  0x00000c35      0x276 Drivers\BSP\VL53L1X API\api\core\vl53l1_register_funcs.o
 .debug_abbrev  0x00000eab      0x24b Drivers\BSP\VL53L1X API\api\core\vl53l1_wait.o
 .debug_abbrev  0x000010f6      0x2aa Drivers\BSP\VL53L1X API\api\platform\vl53l1_platform.o
 .debug_abbrev  0x000013a0      0x280 Drivers\STM32F4xx_HAL_Driver\Src\stm32f4xx_hal.o
 .debug_abbrev  0x00001620      0x371 Drivers\STM32F4xx_HAL_Driver\Src\stm32f4xx_hal_cortex.o
 .debug_abbrev  0x00001991      0x24c Drivers\STM32F4xx_HAL_Driver\Src\stm32f4xx_hal_gpio.o
 .debug_abbrev  0x00001bdd      0x2a1 Drivers\STM32F4xx_HAL_Driver\Src\stm32f4xx_hal_i2c.o
 .debug_abbrev  0x00001e7e      0x2c8 Drivers\STM32F4xx_HAL_Driver\Src\stm32f4xx_hal_rcc.o
 .debug_abbrev  0x00002146      0x2ab Drivers\STM32F4xx_HAL_Driver\Src\stm32f4xx_hal_tim.o
 .debug_abbrev  0x000023f1      0x288 Drivers\STM32F4xx_HAL_Driver\Src\stm32f4xx_hal_tim_ex.o
 .debug_abbrev  0x00002679      0x2bd Drivers\STM32F4xx_HAL_Driver\Src\stm32f4xx_hal_uart.o
 .debug_abbrev  0x00002936      0x383 Middlewares\Third_Party\FreeRTOS\Source\CMSIS_RTOS\cmsis_os.o
 .debug_abbrev  0x00002cb9      0x1c5 Middlewares\Third_Party\FreeRTOS\Source\list.o
 .debug_abbrev  0x00002e7e      0x1d5 Middlewares\Third_Party\FreeRTOS\Source\portable\GCC\ARM_CM4F\port.o
 .debug_abbrev  0x00003053      0x29b Middlewares\Third_Party\FreeRTOS\Source\portable\MemMang\heap_4.o
 .debug_abbrev  0x000032ee      0x2d4 Middlewares\Third_Party\FreeRTOS\Source\queue.o
 .debug_abbrev  0x000035c2      0x351 Middlewares\Third_Party\FreeRTOS\Source\tasks.o
 .debug_abbrev  0x00003913      0x2c4 Src\main.o
 .debug_abbrev  0x00003bd7      0x26d Src\stm32f4xx_hal_msp.o
 .debug_abbrev  0x00003e44      0x207 Src\stm32f4xx_hal_timebase_TIM.o
 .debug_abbrev  0x0000404b      0x1d5 Src\stm32f4xx_it.o
 .debug_abbrev  0x00004220      0x1ca Src\system_stm32f4xx.o
 .debug_abbrev  0x000043ea       0x12 startup\startup_stm32f401xe.o

.debug_aranges  0x00000000     0x1b90
 .debug_aranges
                0x00000000      0x238 Drivers\BSP\VL53L1X API\api\core\vl53l1_api.o
 .debug_aranges
                0x00000238      0x1c0 Drivers\BSP\VL53L1X API\api\core\vl53l1_api_core.o
 .debug_aranges
                0x000003f8       0xa8 Drivers\BSP\VL53L1X API\api\core\vl53l1_api_preset_modes.o
 .debug_aranges
                0x000004a0      0x1e0 Drivers\BSP\VL53L1X API\api\core\vl53l1_core.o
 .debug_aranges
                0x00000680       0x30 Drivers\BSP\VL53L1X API\api\core\vl53l1_core_support.o
 .debug_aranges
                0x000006b0       0xe0 Drivers\BSP\VL53L1X API\api\core\vl53l1_register_funcs.o
 .debug_aranges
                0x00000790       0x68 Drivers\BSP\VL53L1X API\api\core\vl53l1_wait.o
 .debug_aranges
                0x000007f8       0x98 Drivers\BSP\VL53L1X API\api\platform\vl53l1_platform.o
 .debug_aranges
                0x00000890       0xe0 Drivers\STM32F4xx_HAL_Driver\Src\stm32f4xx_hal.o
 .debug_aranges
                0x00000970      0x118 Drivers\STM32F4xx_HAL_Driver\Src\stm32f4xx_hal_cortex.o
 .debug_aranges
                0x00000a88       0x58 Drivers\STM32F4xx_HAL_Driver\Src\stm32f4xx_hal_gpio.o
 .debug_aranges
                0x00000ae0      0x268 Drivers\STM32F4xx_HAL_Driver\Src\stm32f4xx_hal_i2c.o
 .debug_aranges
                0x00000d48       0x88 Drivers\STM32F4xx_HAL_Driver\Src\stm32f4xx_hal_rcc.o
 .debug_aranges
                0x00000dd0      0x368 Drivers\STM32F4xx_HAL_Driver\Src\stm32f4xx_hal_tim.o
 .debug_aranges
                0x00001138      0x140 Drivers\STM32F4xx_HAL_Driver\Src\stm32f4xx_hal_tim_ex.o
 .debug_aranges
                0x00001278      0x1d0 Drivers\STM32F4xx_HAL_Driver\Src\stm32f4xx_hal_uart.o
 .debug_aranges
                0x00001448      0x1d8 Middlewares\Third_Party\FreeRTOS\Source\CMSIS_RTOS\cmsis_os.o
 .debug_aranges
                0x00001620       0x40 Middlewares\Third_Party\FreeRTOS\Source\list.o
 .debug_aranges
                0x00001660       0x80 Middlewares\Third_Party\FreeRTOS\Source\portable\GCC\ARM_CM4F\port.o
 .debug_aranges
                0x000016e0       0x50 Middlewares\Third_Party\FreeRTOS\Source\portable\MemMang\heap_4.o
 .debug_aranges
                0x00001730       0xe0 Middlewares\Third_Party\FreeRTOS\Source\queue.o
 .debug_aranges
                0x00001810      0x190 Middlewares\Third_Party\FreeRTOS\Source\tasks.o
 .debug_aranges
                0x000019a0       0xc0 Src\main.o
 .debug_aranges
                0x00001a60       0x68 Src\stm32f4xx_hal_msp.o
 .debug_aranges
                0x00001ac8       0x30 Src\stm32f4xx_hal_timebase_TIM.o
 .debug_aranges
                0x00001af8       0x48 Src\stm32f4xx_it.o
 .debug_aranges
                0x00001b40       0x28 Src\system_stm32f4xx.o
 .debug_aranges
                0x00001b68       0x28 startup\startup_stm32f401xe.o

.debug_ranges   0x00000000     0x19d8
 .debug_ranges  0x00000000      0x228 Drivers\BSP\VL53L1X API\api\core\vl53l1_api.o
 .debug_ranges  0x00000228      0x1b0 Drivers\BSP\VL53L1X API\api\core\vl53l1_api_core.o
 .debug_ranges  0x000003d8       0x98 Drivers\BSP\VL53L1X API\api\core\vl53l1_api_preset_modes.o
 .debug_ranges  0x00000470      0x1d0 Drivers\BSP\VL53L1X API\api\core\vl53l1_core.o
 .debug_ranges  0x00000640       0x20 Drivers\BSP\VL53L1X API\api\core\vl53l1_core_support.o
 .debug_ranges  0x00000660       0xd0 Drivers\BSP\VL53L1X API\api\core\vl53l1_register_funcs.o
 .debug_ranges  0x00000730       0x58 Drivers\BSP\VL53L1X API\api\core\vl53l1_wait.o
 .debug_ranges  0x00000788       0x88 Drivers\BSP\VL53L1X API\api\platform\vl53l1_platform.o
 .debug_ranges  0x00000810       0xd0 Drivers\STM32F4xx_HAL_Driver\Src\stm32f4xx_hal.o
 .debug_ranges  0x000008e0      0x108 Drivers\STM32F4xx_HAL_Driver\Src\stm32f4xx_hal_cortex.o
 .debug_ranges  0x000009e8       0x48 Drivers\STM32F4xx_HAL_Driver\Src\stm32f4xx_hal_gpio.o
 .debug_ranges  0x00000a30      0x258 Drivers\STM32F4xx_HAL_Driver\Src\stm32f4xx_hal_i2c.o
 .debug_ranges  0x00000c88       0x78 Drivers\STM32F4xx_HAL_Driver\Src\stm32f4xx_hal_rcc.o
 .debug_ranges  0x00000d00      0x358 Drivers\STM32F4xx_HAL_Driver\Src\stm32f4xx_hal_tim.o
 .debug_ranges  0x00001058      0x130 Drivers\STM32F4xx_HAL_Driver\Src\stm32f4xx_hal_tim_ex.o
 .debug_ranges  0x00001188      0x1c0 Drivers\STM32F4xx_HAL_Driver\Src\stm32f4xx_hal_uart.o
 .debug_ranges  0x00001348      0x1c8 Middlewares\Third_Party\FreeRTOS\Source\CMSIS_RTOS\cmsis_os.o
 .debug_ranges  0x00001510       0x30 Middlewares\Third_Party\FreeRTOS\Source\list.o
 .debug_ranges  0x00001540       0x70 Middlewares\Third_Party\FreeRTOS\Source\portable\GCC\ARM_CM4F\port.o
 .debug_ranges  0x000015b0       0x40 Middlewares\Third_Party\FreeRTOS\Source\portable\MemMang\heap_4.o
 .debug_ranges  0x000015f0       0xd0 Middlewares\Third_Party\FreeRTOS\Source\queue.o
 .debug_ranges  0x000016c0      0x180 Middlewares\Third_Party\FreeRTOS\Source\tasks.o
 .debug_ranges  0x00001840       0xb0 Src\main.o
 .debug_ranges  0x000018f0       0x58 Src\stm32f4xx_hal_msp.o
 .debug_ranges  0x00001948       0x20 Src\stm32f4xx_hal_timebase_TIM.o
 .debug_ranges  0x00001968       0x38 Src\stm32f4xx_it.o
 .debug_ranges  0x000019a0       0x18 Src\system_stm32f4xx.o
 .debug_ranges  0x000019b8       0x20 startup\startup_stm32f401xe.o

.debug_line     0x00000000     0xd5df
 .debug_line    0x00000000      0xe49 Drivers\BSP\VL53L1X API\api\core\vl53l1_api.o
 .debug_line    0x00000e49      0xda2 Drivers\BSP\VL53L1X API\api\core\vl53l1_api_core.o
 .debug_line    0x00001beb      0x5c2 Drivers\BSP\VL53L1X API\api\core\vl53l1_api_preset_modes.o
 .debug_line    0x000021ad      0xbed Drivers\BSP\VL53L1X API\api\core\vl53l1_core.o
 .debug_line    0x00002d9a      0x2eb Drivers\BSP\VL53L1X API\api\core\vl53l1_core_support.o
 .debug_line    0x00003085      0x931 Drivers\BSP\VL53L1X API\api\core\vl53l1_register_funcs.o
 .debug_line    0x000039b6      0x630 Drivers\BSP\VL53L1X API\api\core\vl53l1_wait.o
 .debug_line    0x00003fe6      0x667 Drivers\BSP\VL53L1X API\api\platform\vl53l1_platform.o
 .debug_line    0x0000464d      0x491 Drivers\STM32F4xx_HAL_Driver\Src\stm32f4xx_hal.o
 .debug_line    0x00004ade      0x5c9 Drivers\STM32F4xx_HAL_Driver\Src\stm32f4xx_hal_cortex.o
 .debug_line    0x000050a7      0x45b Drivers\STM32F4xx_HAL_Driver\Src\stm32f4xx_hal_gpio.o
 .debug_line    0x00005502     0x12ba Drivers\STM32F4xx_HAL_Driver\Src\stm32f4xx_hal_i2c.o
 .debug_line    0x000067bc      0x530 Drivers\STM32F4xx_HAL_Driver\Src\stm32f4xx_hal_rcc.o
 .debug_line    0x00006cec     0x1272 Drivers\STM32F4xx_HAL_Driver\Src\stm32f4xx_hal_tim.o
 .debug_line    0x00007f5e      0x885 Drivers\STM32F4xx_HAL_Driver\Src\stm32f4xx_hal_tim_ex.o
 .debug_line    0x000087e3      0xbb1 Drivers\STM32F4xx_HAL_Driver\Src\stm32f4xx_hal_uart.o
 .debug_line    0x00009394      0x91c Middlewares\Third_Party\FreeRTOS\Source\CMSIS_RTOS\cmsis_os.o
 .debug_line    0x00009cb0      0x364 Middlewares\Third_Party\FreeRTOS\Source\list.o
 .debug_line    0x0000a014      0x3b8 Middlewares\Third_Party\FreeRTOS\Source\portable\GCC\ARM_CM4F\port.o
 .debug_line    0x0000a3cc      0x401 Middlewares\Third_Party\FreeRTOS\Source\portable\MemMang\heap_4.o
 .debug_line    0x0000a7cd      0x9d2 Middlewares\Third_Party\FreeRTOS\Source\queue.o
 .debug_line    0x0000b19f      0xd29 Middlewares\Third_Party\FreeRTOS\Source\tasks.o
 .debug_line    0x0000bec8      0x94e Src\main.o
 .debug_line    0x0000c816      0x3e0 Src\stm32f4xx_hal_msp.o
 .debug_line    0x0000cbf6      0x304 Src\stm32f4xx_hal_timebase_TIM.o
 .debug_line    0x0000cefa      0x3f6 Src\stm32f4xx_it.o
 .debug_line    0x0000d2f0      0x270 Src\system_stm32f4xx.o
 .debug_line    0x0000d560       0x7f startup\startup_stm32f401xe.o

.debug_str      0x00000000     0xbde7
 .debug_str     0x00000000     0x46de Drivers\BSP\VL53L1X API\api\core\vl53l1_api.o
                               0x4d8d (size before relaxing)
 .debug_str     0x000046de      0xa5b Drivers\BSP\VL53L1X API\api\core\vl53l1_api_core.o
                               0x4644 (size before relaxing)
 .debug_str     0x00005139      0x339 Drivers\BSP\VL53L1X API\api\core\vl53l1_api_preset_modes.o
                               0x1e46 (size before relaxing)
 .debug_str     0x00005472      0xa94 Drivers\BSP\VL53L1X API\api\core\vl53l1_core.o
                               0x4603 (size before relaxing)
 .debug_str     0x00005f06       0x8f Drivers\BSP\VL53L1X API\api\core\vl53l1_core_support.o
                                0x746 (size before relaxing)
 .debug_str     0x00005f95      0x357 Drivers\BSP\VL53L1X API\api\core\vl53l1_register_funcs.o
                               0x3d35 (size before relaxing)
 .debug_str     0x000062ec      0x1c3 Drivers\BSP\VL53L1X API\api\core\vl53l1_wait.o
                               0x3bb3 (size before relaxing)
 .debug_str     0x000064af      0x1cc Drivers\BSP\VL53L1X API\api\platform\vl53l1_platform.o
                               0x3bef (size before relaxing)
 .debug_str     0x0000667b      0x7e4 Drivers\STM32F4xx_HAL_Driver\Src\stm32f4xx_hal.o
                                0xe48 (size before relaxing)
 .debug_str     0x00006e5f      0x3ff Drivers\STM32F4xx_HAL_Driver\Src\stm32f4xx_hal_cortex.o
                                0xf52 (size before relaxing)
 .debug_str     0x0000725e      0x1c8 Drivers\STM32F4xx_HAL_Driver\Src\stm32f4xx_hal_gpio.o
                                0x99c (size before relaxing)
 .debug_str     0x00007426      0x7e5 Drivers\STM32F4xx_HAL_Driver\Src\stm32f4xx_hal_i2c.o
                               0x1381 (size before relaxing)
 .debug_str     0x00007c0b      0x2d3 Drivers\STM32F4xx_HAL_Driver\Src\stm32f4xx_hal_rcc.o
                                0xb48 (size before relaxing)
 .debug_str     0x00007ede      0xebb Drivers\STM32F4xx_HAL_Driver\Src\stm32f4xx_hal_tim.o
                               0x17fa (size before relaxing)
 .debug_str     0x00008d99      0x543 Drivers\STM32F4xx_HAL_Driver\Src\stm32f4xx_hal_tim_ex.o
                               0x10b5 (size before relaxing)
 .debug_str     0x000092dc      0x6b9 Drivers\STM32F4xx_HAL_Driver\Src\stm32f4xx_hal_uart.o
                               0x1026 (size before relaxing)
 .debug_str     0x00009995      0x8a1 Middlewares\Third_Party\FreeRTOS\Source\CMSIS_RTOS\cmsis_os.o
                                0xf9c (size before relaxing)
 .debug_str     0x0000a236      0x14f Middlewares\Third_Party\FreeRTOS\Source\list.o
                                0x776 (size before relaxing)
 .debug_str     0x0000a385      0x244 Middlewares\Third_Party\FreeRTOS\Source\portable\GCC\ARM_CM4F\port.o
                                0x492 (size before relaxing)
 .debug_str     0x0000a5c9      0x1ff Middlewares\Third_Party\FreeRTOS\Source\portable\MemMang\heap_4.o
                                0x840 (size before relaxing)
 .debug_str     0x0000a7c8      0x48e Middlewares\Third_Party\FreeRTOS\Source\queue.o
                                0xc12 (size before relaxing)
 .debug_str     0x0000ac56      0x912 Middlewares\Third_Party\FreeRTOS\Source\tasks.o
                               0x118e (size before relaxing)
 .debug_str     0x0000b568      0x705 Src\main.o
                               0x4ebb (size before relaxing)
 .debug_str     0x0000bc6d       0x45 Src\stm32f4xx_hal_msp.o
                               0x1486 (size before relaxing)
 .debug_str     0x0000bcb2       0x61 Src\stm32f4xx_hal_timebase_TIM.o
                               0x1028 (size before relaxing)
 .debug_str     0x0000bd13       0x8f Src\stm32f4xx_it.o
                                0xb73 (size before relaxing)
 .debug_str     0x0000bda2       0x45 Src\system_stm32f4xx.o
                                0x800 (size before relaxing)

.comment        0x00000000       0x7c
 .comment       0x00000000       0x7c Drivers\BSP\VL53L1X API\api\core\vl53l1_api.o
                                 0x7d (size before relaxing)
 .comment       0x0000007c       0x7d Drivers\BSP\VL53L1X API\api\core\vl53l1_api_core.o
 .comment       0x0000007c       0x7d Drivers\BSP\VL53L1X API\api\core\vl53l1_api_preset_modes.o
 .comment       0x0000007c       0x7d Drivers\BSP\VL53L1X API\api\core\vl53l1_core.o
 .comment       0x0000007c       0x7d Drivers\BSP\VL53L1X API\api\core\vl53l1_core_support.o
 .comment       0x0000007c       0x7d Drivers\BSP\VL53L1X API\api\core\vl53l1_register_funcs.o
 .comment       0x0000007c       0x7d Drivers\BSP\VL53L1X API\api\core\vl53l1_wait.o
 .comment       0x0000007c       0x7d Drivers\BSP\VL53L1X API\api\platform\vl53l1_platform.o
 .comment       0x0000007c       0x7d Drivers\STM32F4xx_HAL_Driver\Src\stm32f4xx_hal.o
 .comment       0x0000007c       0x7d Drivers\STM32F4xx_HAL_Driver\Src\stm32f4xx_hal_cortex.o
 .comment       0x0000007c       0x7d Drivers\STM32F4xx_HAL_Driver\Src\stm32f4xx_hal_gpio.o
 .comment       0x0000007c       0x7d Drivers\STM32F4xx_HAL_Driver\Src\stm32f4xx_hal_i2c.o
 .comment       0x0000007c       0x7d Drivers\STM32F4xx_HAL_Driver\Src\stm32f4xx_hal_rcc.o
 .comment       0x0000007c       0x7d Drivers\STM32F4xx_HAL_Driver\Src\stm32f4xx_hal_tim.o
 .comment       0x0000007c       0x7d Drivers\STM32F4xx_HAL_Driver\Src\stm32f4xx_hal_tim_ex.o
 .comment       0x0000007c       0x7d Drivers\STM32F4xx_HAL_Driver\Src\stm32f4xx_hal_uart.o
 .comment       0x0000007c       0x7d Middlewares\Third_Party\FreeRTOS\Source\CMSIS_RTOS\cmsis_os.o
 .comment       0x0000007c       0x7d Middlewares\Third_Party\FreeRTOS\Source\list.o
 .comment       0x0000007c       0x7d Middlewares\Third_Party\FreeRTOS\Source\portable\GCC\ARM_CM4F\port.o
 .comment       0x0000007c       0x7d Middlewares\Third_Party\FreeRTOS\Source\portable\MemMang\heap_4.o
 .comment       0x0000007c       0x7d Middlewares\Third_Party\FreeRTOS\Source\queue.o
 .comment       0x0000007c       0x7d Middlewares\Third_Party\FreeRTOS\Source\tasks.o
 .comment       0x0000007c       0x7d Src\main.o
 .comment       0x0000007c       0x7d Src\stm32f4xx_hal_msp.o
 .comment       0x0000007c       0x7d Src\stm32f4xx_hal_timebase_TIM.o
 .comment       0x0000007c       0x7d Src\stm32f4xx_it.o
 .comment       0x0000007c       0x7d Src\system_stm32f4xx.o

.debug_frame    0x00000000     0x7940
 .debug_frame   0x00000000      0xa00 Drivers\BSP\VL53L1X API\api\core\vl53l1_api.o
 .debug_frame   0x00000a00      0x828 Drivers\BSP\VL53L1X API\api\core\vl53l1_api_core.o
 .debug_frame   0x00001228      0x2ac Drivers\BSP\VL53L1X API\api\core\vl53l1_api_preset_modes.o
 .debug_frame   0x000014d4      0x8bc Drivers\BSP\VL53L1X API\api\core\vl53l1_core.o
 .debug_frame   0x00001d90       0x88 Drivers\BSP\VL53L1X API\api\core\vl53l1_core_support.o
 .debug_frame   0x00001e18      0x3a0 Drivers\BSP\VL53L1X API\api\core\vl53l1_register_funcs.o
 .debug_frame   0x000021b8      0x178 Drivers\BSP\VL53L1X API\api\core\vl53l1_wait.o
 .debug_frame   0x00002330      0x25c Drivers\BSP\VL53L1X API\api\platform\vl53l1_platform.o
 .debug_frame   0x0000258c      0x33c Drivers\STM32F4xx_HAL_Driver\Src\stm32f4xx_hal.o
 .debug_frame   0x000028c8      0x498 Drivers\STM32F4xx_HAL_Driver\Src\stm32f4xx_hal_cortex.o
 .debug_frame   0x00002d60      0x14c Drivers\STM32F4xx_HAL_Driver\Src\stm32f4xx_hal_gpio.o
 .debug_frame   0x00002eac      0xb30 Drivers\STM32F4xx_HAL_Driver\Src\stm32f4xx_hal_i2c.o
 .debug_frame   0x000039dc      0x1f8 Drivers\STM32F4xx_HAL_Driver\Src\stm32f4xx_hal_rcc.o
 .debug_frame   0x00003bd4      0xfb4 Drivers\STM32F4xx_HAL_Driver\Src\stm32f4xx_hal_tim.o
 .debug_frame   0x00004b88      0x574 Drivers\STM32F4xx_HAL_Driver\Src\stm32f4xx_hal_tim_ex.o
 .debug_frame   0x000050fc      0x83c Drivers\STM32F4xx_HAL_Driver\Src\stm32f4xx_hal_uart.o
 .debug_frame   0x00005938      0x808 Middlewares\Third_Party\FreeRTOS\Source\CMSIS_RTOS\cmsis_os.o
 .debug_frame   0x00006140       0xd8 Middlewares\Third_Party\FreeRTOS\Source\list.o
 .debug_frame   0x00006218      0x19c Middlewares\Third_Party\FreeRTOS\Source\portable\GCC\ARM_CM4F\port.o
 .debug_frame   0x000063b4      0x108 Middlewares\Third_Party\FreeRTOS\Source\portable\MemMang\heap_4.o
 .debug_frame   0x000064bc      0x3b0 Middlewares\Third_Party\FreeRTOS\Source\queue.o
 .debug_frame   0x0000686c      0x6bc Middlewares\Third_Party\FreeRTOS\Source\tasks.o
 .debug_frame   0x00006f28      0x2d4 Src\main.o
 .debug_frame   0x000071fc      0x180 Src\stm32f4xx_hal_msp.o
 .debug_frame   0x0000737c       0x74 Src\stm32f4xx_hal_timebase_TIM.o
 .debug_frame   0x000073f0       0xd8 Src\stm32f4xx_it.o
 .debug_frame   0x000074c8       0x58 Src\system_stm32f4xx.o
 .debug_frame   0x00007520       0x2c c:/program files (x86)/atollic/truestudio for stm32 9.0.1/armtools/bin/../lib/gcc/arm-atollic-eabi/6.3.1/../../../../arm-atollic-eabi/lib/armv7e-m/fpu\libc_nano.a(lib_a-init.o)
 .debug_frame   0x0000754c       0x28 c:/program files (x86)/atollic/truestudio for stm32 9.0.1/armtools/bin/../lib/gcc/arm-atollic-eabi/6.3.1/../../../../arm-atollic-eabi/lib/armv7e-m/fpu\libc_nano.a(lib_a-memcpy-stub.o)
 .debug_frame   0x00007574       0x20 c:/program files (x86)/atollic/truestudio for stm32 9.0.1/armtools/bin/../lib/gcc/arm-atollic-eabi/6.3.1/../../../../arm-atollic-eabi/lib/armv7e-m/fpu\libc_nano.a(lib_a-memset.o)
 .debug_frame   0x00007594       0x70 c:/program files (x86)/atollic/truestudio for stm32 9.0.1/armtools/bin/../lib/gcc/arm-atollic-eabi/6.3.1/../../../../arm-atollic-eabi/lib/armv7e-m/fpu\libc_nano.a(lib_a-sprintf.o)
 .debug_frame   0x00007604       0x2c c:/program files (x86)/atollic/truestudio for stm32 9.0.1/armtools/bin/../lib/gcc/arm-atollic-eabi/6.3.1/../../../../arm-atollic-eabi/lib/armv7e-m/fpu\libc_nano.a(lib_a-strncpy.o)
 .debug_frame   0x00007630       0x90 c:/program files (x86)/atollic/truestudio for stm32 9.0.1/armtools/bin/../lib/gcc/arm-atollic-eabi/6.3.1/../../../../arm-atollic-eabi/lib/armv7e-m/fpu\libc_nano.a(lib_a-nano-svfprintf.o)
 .debug_frame   0x000076c0       0x60 c:/program files (x86)/atollic/truestudio for stm32 9.0.1/armtools/bin/../lib/gcc/arm-atollic-eabi/6.3.1/../../../../arm-atollic-eabi/lib/armv7e-m/fpu\libc_nano.a(lib_a-nano-vfprintf_i.o)
 .debug_frame   0x00007720       0x28 c:/program files (x86)/atollic/truestudio for stm32 9.0.1/armtools/bin/../lib/gcc/arm-atollic-eabi/6.3.1/../../../../arm-atollic-eabi/lib/armv7e-m/fpu\libc_nano.a(lib_a-memmove.o)
 .debug_frame   0x00007748       0x38 c:/program files (x86)/atollic/truestudio for stm32 9.0.1/armtools/bin/../lib/gcc/arm-atollic-eabi/6.3.1/../../../../arm-atollic-eabi/lib/armv7e-m/fpu\libc_nano.a(lib_a-nano-freer.o)
 .debug_frame   0x00007780       0x2c c:/program files (x86)/atollic/truestudio for stm32 9.0.1/armtools/bin/../lib/gcc/arm-atollic-eabi/6.3.1/../../../../arm-atollic-eabi/lib/armv7e-m/fpu\libc_nano.a(lib_a-nano-mallocr.o)
 .debug_frame   0x000077ac       0x3c c:/program files (x86)/atollic/truestudio for stm32 9.0.1/armtools/bin/../lib/gcc/arm-atollic-eabi/6.3.1/../../../../arm-atollic-eabi/lib/armv7e-m/fpu\libc_nano.a(lib_a-nano-reallocr.o)
 .debug_frame   0x000077e8       0x2c c:/program files (x86)/atollic/truestudio for stm32 9.0.1/armtools/bin/../lib/gcc/arm-atollic-eabi/6.3.1/../../../../arm-atollic-eabi/lib/armv7e-m/fpu\libc_nano.a(lib_a-sbrkr.o)
 .debug_frame   0x00007814       0x30 c:/program files (x86)/atollic/truestudio for stm32 9.0.1/armtools/bin/../lib/gcc/arm-atollic-eabi/6.3.1/../../../../arm-atollic-eabi/lib/armv7e-m/fpu\libc_nano.a(lib_a-mlock.o)
 .debug_frame   0x00007844       0x20 c:/program files (x86)/atollic/truestudio for stm32 9.0.1/armtools/bin/../lib/gcc/arm-atollic-eabi/6.3.1/../../../../arm-atollic-eabi/lib/armv7e-m/fpu\libc_nano.a(lib_a-nano-msizer.o)
 .debug_frame   0x00007864       0x5c c:/program files (x86)/atollic/truestudio for stm32 9.0.1/armtools/bin/../lib/gcc/arm-atollic-eabi/6.3.1/../../../../arm-atollic-eabi/lib/armv7e-m/fpu\libc_nano.a(lib_a-reent.o)
 .debug_frame   0x000078c0       0x2c c:/program files (x86)/atollic/truestudio for stm32 9.0.1/armtools/bin/../lib/gcc/arm-atollic-eabi/6.3.1/armv7e-m/fpu\libgcc.a(_aeabi_uldivmod.o)
 .debug_frame   0x000078ec       0x34 c:/program files (x86)/atollic/truestudio for stm32 9.0.1/armtools/bin/../lib/gcc/arm-atollic-eabi/6.3.1/armv7e-m/fpu\libgcc.a(_udivmoddi4.o)
 .debug_frame   0x00007920       0x20 c:/program files (x86)/atollic/truestudio for stm32 9.0.1/armtools/bin/../lib/gcc/arm-atollic-eabi/6.3.1/../../../../arm-atollic-eabi/lib/armv7e-m/fpu\libnosys.a(sbrk.o)
